
rv32uzfh-p-fadd:     file format elf32-littleriscv


Disassembly of section .text.init:

80000000 <_start>:
80000000:	00000093          	li	ra,0
80000004:	00000113          	li	sp,0
80000008:	00000193          	li	gp,0
8000000c:	00000213          	li	tp,0
80000010:	00000293          	li	t0,0
80000014:	00000313          	li	t1,0
80000018:	00000393          	li	t2,0
8000001c:	00000413          	li	s0,0
80000020:	00000493          	li	s1,0
80000024:	00000513          	li	a0,0
80000028:	00000593          	li	a1,0
8000002c:	00000613          	li	a2,0
80000030:	00000693          	li	a3,0
80000034:	00000713          	li	a4,0
80000038:	00000793          	li	a5,0
8000003c:	00000813          	li	a6,0
80000040:	00000893          	li	a7,0
80000044:	00000913          	li	s2,0
80000048:	00000993          	li	s3,0
8000004c:	00000a13          	li	s4,0
80000050:	00000a93          	li	s5,0
80000054:	00000b13          	li	s6,0
80000058:	00000b93          	li	s7,0
8000005c:	00000c13          	li	s8,0
80000060:	00000c93          	li	s9,0
80000064:	00000d13          	li	s10,0
80000068:	00000d93          	li	s11,0
8000006c:	00000e13          	li	t3,0
80000070:	00000e93          	li	t4,0
80000074:	00000f13          	li	t5,0
80000078:	00000f93          	li	t6,0

8000007c <test_2>:
8000007c:	00200193          	li	gp,2
80000080:	20000517          	auipc	a0,0x20000
80000084:	f8050513          	add	a0,a0,-128 # a0000000 <test_2_data>
80000088:	00051007          	flh	ft0,0(a0)
8000008c:	00251087          	flh	ft1,2(a0)
80000090:	00451107          	flh	ft2,4(a0)
80000094:	00651683          	lh	a3,6(a0)
80000098:	041071d3          	fadd.h	ft3,ft0,ft1
8000009c:	e4018553          	fmv.x.h	a0,ft3
800000a0:	001015f3          	fsflags	a1,zero
800000a4:	00000613          	li	a2,0
800000a8:	1ed51e63          	bne	a0,a3,800002a4 <fail>
800000ac:	1ec59c63          	bne	a1,a2,800002a4 <fail>

800000b0 <test_3>:
800000b0:	00300193          	li	gp,3
800000b4:	20000517          	auipc	a0,0x20000
800000b8:	f5450513          	add	a0,a0,-172 # a0000008 <test_3_data>
800000bc:	00051007          	flh	ft0,0(a0)
800000c0:	00251087          	flh	ft1,2(a0)
800000c4:	00451107          	flh	ft2,4(a0)
800000c8:	00651683          	lh	a3,6(a0)
800000cc:	041071d3          	fadd.h	ft3,ft0,ft1
800000d0:	e4018553          	fmv.x.h	a0,ft3
800000d4:	001015f3          	fsflags	a1,zero
800000d8:	00100613          	li	a2,1
800000dc:	1cd51463          	bne	a0,a3,800002a4 <fail>
800000e0:	1cc59263          	bne	a1,a2,800002a4 <fail>

800000e4 <test_4>:
800000e4:	00400193          	li	gp,4
800000e8:	20000517          	auipc	a0,0x20000
800000ec:	f2850513          	add	a0,a0,-216 # a0000010 <test_4_data>
800000f0:	00051007          	flh	ft0,0(a0)
800000f4:	00251087          	flh	ft1,2(a0)
800000f8:	00451107          	flh	ft2,4(a0)
800000fc:	00651683          	lh	a3,6(a0)
80000100:	041071d3          	fadd.h	ft3,ft0,ft1
80000104:	e4018553          	fmv.x.h	a0,ft3
80000108:	001015f3          	fsflags	a1,zero
8000010c:	00100613          	li	a2,1
80000110:	18d51a63          	bne	a0,a3,800002a4 <fail>
80000114:	18c59863          	bne	a1,a2,800002a4 <fail>

80000118 <test_5>:
80000118:	00500193          	li	gp,5
8000011c:	20000517          	auipc	a0,0x20000
80000120:	efc50513          	add	a0,a0,-260 # a0000018 <test_5_data>
80000124:	00051007          	flh	ft0,0(a0)
80000128:	00251087          	flh	ft1,2(a0)
8000012c:	00451107          	flh	ft2,4(a0)
80000130:	00651683          	lh	a3,6(a0)
80000134:	0c1071d3          	fsub.h	ft3,ft0,ft1
80000138:	e4018553          	fmv.x.h	a0,ft3
8000013c:	001015f3          	fsflags	a1,zero
80000140:	00000613          	li	a2,0
80000144:	16d51063          	bne	a0,a3,800002a4 <fail>
80000148:	14c59e63          	bne	a1,a2,800002a4 <fail>

8000014c <test_6>:
8000014c:	00600193          	li	gp,6
80000150:	20000517          	auipc	a0,0x20000
80000154:	ed050513          	add	a0,a0,-304 # a0000020 <test_6_data>
80000158:	00051007          	flh	ft0,0(a0)
8000015c:	00251087          	flh	ft1,2(a0)
80000160:	00451107          	flh	ft2,4(a0)
80000164:	00651683          	lh	a3,6(a0)
80000168:	0c1071d3          	fsub.h	ft3,ft0,ft1
8000016c:	e4018553          	fmv.x.h	a0,ft3
80000170:	001015f3          	fsflags	a1,zero
80000174:	00100613          	li	a2,1
80000178:	12d51663          	bne	a0,a3,800002a4 <fail>
8000017c:	12c59463          	bne	a1,a2,800002a4 <fail>

80000180 <test_7>:
80000180:	00700193          	li	gp,7
80000184:	20000517          	auipc	a0,0x20000
80000188:	ea450513          	add	a0,a0,-348 # a0000028 <test_7_data>
8000018c:	00051007          	flh	ft0,0(a0)
80000190:	00251087          	flh	ft1,2(a0)
80000194:	00451107          	flh	ft2,4(a0)
80000198:	00651683          	lh	a3,6(a0)
8000019c:	0c1071d3          	fsub.h	ft3,ft0,ft1
800001a0:	e4018553          	fmv.x.h	a0,ft3
800001a4:	001015f3          	fsflags	a1,zero
800001a8:	00100613          	li	a2,1
800001ac:	0ed51c63          	bne	a0,a3,800002a4 <fail>
800001b0:	0ec59a63          	bne	a1,a2,800002a4 <fail>

800001b4 <test_8>:
800001b4:	00800193          	li	gp,8
800001b8:	20000517          	auipc	a0,0x20000
800001bc:	e7850513          	add	a0,a0,-392 # a0000030 <test_8_data>
800001c0:	00051007          	flh	ft0,0(a0)
800001c4:	00251087          	flh	ft1,2(a0)
800001c8:	00451107          	flh	ft2,4(a0)
800001cc:	00651683          	lh	a3,6(a0)
800001d0:	141071d3          	fmul.h	ft3,ft0,ft1
800001d4:	e4018553          	fmv.x.h	a0,ft3
800001d8:	001015f3          	fsflags	a1,zero
800001dc:	00000613          	li	a2,0
800001e0:	0cd51263          	bne	a0,a3,800002a4 <fail>
800001e4:	0cc59063          	bne	a1,a2,800002a4 <fail>

800001e8 <test_9>:
800001e8:	00900193          	li	gp,9
800001ec:	20000517          	auipc	a0,0x20000
800001f0:	e4c50513          	add	a0,a0,-436 # a0000038 <test_9_data>
800001f4:	00051007          	flh	ft0,0(a0)
800001f8:	00251087          	flh	ft1,2(a0)
800001fc:	00451107          	flh	ft2,4(a0)
80000200:	00651683          	lh	a3,6(a0)
80000204:	141071d3          	fmul.h	ft3,ft0,ft1
80000208:	e4018553          	fmv.x.h	a0,ft3
8000020c:	001015f3          	fsflags	a1,zero
80000210:	00000613          	li	a2,0
80000214:	08d51863          	bne	a0,a3,800002a4 <fail>
80000218:	08c59663          	bne	a1,a2,800002a4 <fail>

8000021c <test_10>:
8000021c:	00a00193          	li	gp,10
80000220:	20000517          	auipc	a0,0x20000
80000224:	e2050513          	add	a0,a0,-480 # a0000040 <test_10_data>
80000228:	00051007          	flh	ft0,0(a0)
8000022c:	00251087          	flh	ft1,2(a0)
80000230:	00451107          	flh	ft2,4(a0)
80000234:	00651683          	lh	a3,6(a0)
80000238:	141071d3          	fmul.h	ft3,ft0,ft1
8000023c:	e4018553          	fmv.x.h	a0,ft3
80000240:	001015f3          	fsflags	a1,zero
80000244:	00100613          	li	a2,1
80000248:	04d51e63          	bne	a0,a3,800002a4 <fail>
8000024c:	04c59c63          	bne	a1,a2,800002a4 <fail>

80000250 <test_11>:
80000250:	00b00193          	li	gp,11
80000254:	20000517          	auipc	a0,0x20000
80000258:	df450513          	add	a0,a0,-524 # a0000048 <test_11_data>
8000025c:	00051007          	flh	ft0,0(a0)
80000260:	00251087          	flh	ft1,2(a0)
80000264:	00451107          	flh	ft2,4(a0)
80000268:	00651683          	lh	a3,6(a0)
8000026c:	0c1071d3          	fsub.h	ft3,ft0,ft1
80000270:	e4018553          	fmv.x.h	a0,ft3
80000274:	001015f3          	fsflags	a1,zero
80000278:	01000613          	li	a2,16
8000027c:	02d51463          	bne	a0,a3,800002a4 <fail>
80000280:	02c59263          	bne	a1,a2,800002a4 <fail>
80000284:	00301263          	bne	zero,gp,80000288 <pass>

80000288 <pass>:
80000288:	c0000f37          	lui	t5,0xc0000
8000028c:	00100193          	li	gp,1
80000290:	003f2023          	sw	gp,0(t5) # c0000000 <tohost>
80000294:	000f2223          	sw	zero,4(t5)
80000298:	fff00f93          	li	t6,-1
8000029c:	01ff2423          	sw	t6,8(t5)

800002a0 <rvtest_pass>:
800002a0:	0000006f          	j	800002a0 <rvtest_pass>

800002a4 <fail>:
800002a4:	c0000f37          	lui	t5,0xc0000
800002a8:	00119193          	sll	gp,gp,0x1
800002ac:	0011e193          	or	gp,gp,1
800002b0:	003f2023          	sw	gp,0(t5) # c0000000 <tohost>
800002b4:	003f2223          	sw	gp,4(t5)
800002b8:	deadcfb7          	lui	t6,0xdeadc
800002bc:	eeff8f93          	add	t6,t6,-273 # deadbeef <result+0x1eadbe6f>
800002c0:	003f2423          	sw	gp,8(t5)

800002c4 <rvtest_failed>:
800002c4:	0000006f          	j	800002c4 <rvtest_failed>
800002c8:	0000                	.insn	2, 0x
800002ca:	0000                	.insn	2, 0x
800002cc:	0000                	.insn	2, 0x
800002ce:	0000                	.insn	2, 0x
800002d0:	0000                	.insn	2, 0x
800002d2:	0000                	.insn	2, 0x
800002d4:	0000                	.insn	2, 0x
800002d6:	0000                	.insn	2, 0x
800002d8:	0000                	.insn	2, 0x
800002da:	0000                	.insn	2, 0x
800002dc:	0000                	.insn	2, 0x
800002de:	0000                	.insn	2, 0x
800002e0:	0000                	.insn	2, 0x
800002e2:	0000                	.insn	2, 0x
800002e4:	0000                	.insn	2, 0x
800002e6:	0000                	.insn	2, 0x
800002e8:	0000                	.insn	2, 0x
800002ea:	0000                	.insn	2, 0x
800002ec:	0000                	.insn	2, 0x
800002ee:	0000                	.insn	2, 0x
800002f0:	0000                	.insn	2, 0x
800002f2:	0000                	.insn	2, 0x
800002f4:	0000                	.insn	2, 0x
800002f6:	0000                	.insn	2, 0x
800002f8:	0000                	.insn	2, 0x
800002fa:	0000                	.insn	2, 0x
800002fc:	0000                	.insn	2, 0x
800002fe:	0000                	.insn	2, 0x
80000300:	0000                	.insn	2, 0x
80000302:	0000                	.insn	2, 0x

Disassembly of section .data:

a0000000 <test_2_data>:
a0000000:	4100                	.insn	2, 0x4100
a0000002:	3c00                	.insn	2, 0x3c00
a0000004:	0000                	.insn	2, 0x
a0000006:	4300                	.insn	2, 0x4300

a0000008 <test_3_data>:
a0000008:	3c66e4d3          	.insn	4, 0x3c66e4d3
a000000c:	0000                	.insn	2, 0x
a000000e:	e4d2                	.insn	2, 0xe4d2

a0000010 <test_4_data>:
a0000010:	211f4243          	fmadd.s	ft4,ft10,fa7,ft4,rmm
a0000014:	0000                	.insn	2, 0x
a0000016:	4248                	.insn	2, 0x4248

a0000018 <test_5_data>:
a0000018:	4100                	.insn	2, 0x4100
a000001a:	3c00                	.insn	2, 0x3c00
a000001c:	0000                	.insn	2, 0x
a000001e:	3e00                	.insn	2, 0x3e00

a0000020 <test_6_data>:
a0000020:	bc66e4d3          	.insn	4, 0xbc66e4d3
a0000024:	0000                	.insn	2, 0x
a0000026:	e4d2                	.insn	2, 0xe4d2

a0000028 <test_7_data>:
a0000028:	424d                	.insn	2, 0x424d
a000002a:	211f 0000 4248      	.insn	6, 0x42480000211f

a0000030 <test_8_data>:
a0000030:	4100                	.insn	2, 0x4100
a0000032:	3c00                	.insn	2, 0x3c00
a0000034:	0000                	.insn	2, 0x
a0000036:	4100                	.insn	2, 0x4100

a0000038 <test_9_data>:
a0000038:	bc00e4d3          	.insn	4, 0xbc00e4d3
a000003c:	0000                	.insn	2, 0x
a000003e:	          	.insn	4, 0x498064d3

a0000040 <test_10_data>:
a0000040:	4980                	.insn	2, 0x4980
a0000042:	2e66                	.insn	2, 0x2e66
a0000044:	0000                	.insn	2, 0x
a0000046:	3c66                	.insn	2, 0x3c66

a0000048 <test_11_data>:
a0000048:	7c00                	.insn	2, 0x7c00
a000004a:	7c00                	.insn	2, 0x7c00
a000004c:	0000                	.insn	2, 0x
a000004e:	7e00                	.insn	2, 0x7e00
