
rv32uf-p-fcmp:     file format elf32-littleriscv


Disassembly of section .text.init:

80000000 <_start>:
80000000:	00000093          	li	ra,0
80000004:	00000113          	li	sp,0
80000008:	00000193          	li	gp,0
8000000c:	00000213          	li	tp,0
80000010:	00000293          	li	t0,0
80000014:	00000313          	li	t1,0
80000018:	00000393          	li	t2,0
8000001c:	00000413          	li	s0,0
80000020:	00000493          	li	s1,0
80000024:	00000513          	li	a0,0
80000028:	00000593          	li	a1,0
8000002c:	00000613          	li	a2,0
80000030:	00000693          	li	a3,0
80000034:	00000713          	li	a4,0
80000038:	00000793          	li	a5,0
8000003c:	00000813          	li	a6,0
80000040:	00000893          	li	a7,0
80000044:	00000913          	li	s2,0
80000048:	00000993          	li	s3,0
8000004c:	00000a13          	li	s4,0
80000050:	00000a93          	li	s5,0
80000054:	00000b13          	li	s6,0
80000058:	00000b93          	li	s7,0
8000005c:	00000c13          	li	s8,0
80000060:	00000c93          	li	s9,0
80000064:	00000d13          	li	s10,0
80000068:	00000d93          	li	s11,0
8000006c:	00000e13          	li	t3,0
80000070:	00000e93          	li	t4,0
80000074:	00000f13          	li	t5,0
80000078:	00000f93          	li	t6,0

8000007c <test_2>:
8000007c:	00200193          	li	gp,2
80000080:	20000517          	auipc	a0,0x20000
80000084:	f8050513          	add	a0,a0,-128 # a0000000 <test_2_data>
80000088:	00052007          	flw	ft0,0(a0)
8000008c:	00452087          	flw	ft1,4(a0)
80000090:	00852107          	flw	ft2,8(a0)
80000094:	00c52683          	lw	a3,12(a0)
80000098:	a0102553          	feq.s	a0,ft0,ft1
8000009c:	001015f3          	fsflags	a1,zero
800000a0:	00000613          	li	a2,0
800000a4:	2cd51463          	bne	a0,a3,8000036c <fail>
800000a8:	2cc59263          	bne	a1,a2,8000036c <fail>

800000ac <test_3>:
800000ac:	00300193          	li	gp,3
800000b0:	20000517          	auipc	a0,0x20000
800000b4:	f6050513          	add	a0,a0,-160 # a0000010 <test_3_data>
800000b8:	00052007          	flw	ft0,0(a0)
800000bc:	00452087          	flw	ft1,4(a0)
800000c0:	00852107          	flw	ft2,8(a0)
800000c4:	00c52683          	lw	a3,12(a0)
800000c8:	a0100553          	fle.s	a0,ft0,ft1
800000cc:	001015f3          	fsflags	a1,zero
800000d0:	00000613          	li	a2,0
800000d4:	28d51c63          	bne	a0,a3,8000036c <fail>
800000d8:	28c59a63          	bne	a1,a2,8000036c <fail>

800000dc <test_4>:
800000dc:	00400193          	li	gp,4
800000e0:	20000517          	auipc	a0,0x20000
800000e4:	f4050513          	add	a0,a0,-192 # a0000020 <test_4_data>
800000e8:	00052007          	flw	ft0,0(a0)
800000ec:	00452087          	flw	ft1,4(a0)
800000f0:	00852107          	flw	ft2,8(a0)
800000f4:	00c52683          	lw	a3,12(a0)
800000f8:	a0101553          	flt.s	a0,ft0,ft1
800000fc:	001015f3          	fsflags	a1,zero
80000100:	00000613          	li	a2,0
80000104:	26d51463          	bne	a0,a3,8000036c <fail>
80000108:	26c59263          	bne	a1,a2,8000036c <fail>

8000010c <test_5>:
8000010c:	00500193          	li	gp,5
80000110:	20000517          	auipc	a0,0x20000
80000114:	f2050513          	add	a0,a0,-224 # a0000030 <test_5_data>
80000118:	00052007          	flw	ft0,0(a0)
8000011c:	00452087          	flw	ft1,4(a0)
80000120:	00852107          	flw	ft2,8(a0)
80000124:	00c52683          	lw	a3,12(a0)
80000128:	a0102553          	feq.s	a0,ft0,ft1
8000012c:	001015f3          	fsflags	a1,zero
80000130:	00000613          	li	a2,0
80000134:	22d51c63          	bne	a0,a3,8000036c <fail>
80000138:	22c59a63          	bne	a1,a2,8000036c <fail>

8000013c <test_6>:
8000013c:	00600193          	li	gp,6
80000140:	20000517          	auipc	a0,0x20000
80000144:	f0050513          	add	a0,a0,-256 # a0000040 <test_6_data>
80000148:	00052007          	flw	ft0,0(a0)
8000014c:	00452087          	flw	ft1,4(a0)
80000150:	00852107          	flw	ft2,8(a0)
80000154:	00c52683          	lw	a3,12(a0)
80000158:	a0100553          	fle.s	a0,ft0,ft1
8000015c:	001015f3          	fsflags	a1,zero
80000160:	00000613          	li	a2,0
80000164:	20d51463          	bne	a0,a3,8000036c <fail>
80000168:	20c59263          	bne	a1,a2,8000036c <fail>

8000016c <test_7>:
8000016c:	00700193          	li	gp,7
80000170:	20000517          	auipc	a0,0x20000
80000174:	ee050513          	add	a0,a0,-288 # a0000050 <test_7_data>
80000178:	00052007          	flw	ft0,0(a0)
8000017c:	00452087          	flw	ft1,4(a0)
80000180:	00852107          	flw	ft2,8(a0)
80000184:	00c52683          	lw	a3,12(a0)
80000188:	a0101553          	flt.s	a0,ft0,ft1
8000018c:	001015f3          	fsflags	a1,zero
80000190:	00000613          	li	a2,0
80000194:	1cd51c63          	bne	a0,a3,8000036c <fail>
80000198:	1cc59a63          	bne	a1,a2,8000036c <fail>

8000019c <test_8>:
8000019c:	00800193          	li	gp,8
800001a0:	20000517          	auipc	a0,0x20000
800001a4:	ec050513          	add	a0,a0,-320 # a0000060 <test_8_data>
800001a8:	00052007          	flw	ft0,0(a0)
800001ac:	00452087          	flw	ft1,4(a0)
800001b0:	00852107          	flw	ft2,8(a0)
800001b4:	00c52683          	lw	a3,12(a0)
800001b8:	a0102553          	feq.s	a0,ft0,ft1
800001bc:	001015f3          	fsflags	a1,zero
800001c0:	00000613          	li	a2,0
800001c4:	1ad51463          	bne	a0,a3,8000036c <fail>
800001c8:	1ac59263          	bne	a1,a2,8000036c <fail>

800001cc <test_9>:
800001cc:	00900193          	li	gp,9
800001d0:	20000517          	auipc	a0,0x20000
800001d4:	ea050513          	add	a0,a0,-352 # a0000070 <test_9_data>
800001d8:	00052007          	flw	ft0,0(a0)
800001dc:	00452087          	flw	ft1,4(a0)
800001e0:	00852107          	flw	ft2,8(a0)
800001e4:	00c52683          	lw	a3,12(a0)
800001e8:	a0102553          	feq.s	a0,ft0,ft1
800001ec:	001015f3          	fsflags	a1,zero
800001f0:	00000613          	li	a2,0
800001f4:	16d51c63          	bne	a0,a3,8000036c <fail>
800001f8:	16c59a63          	bne	a1,a2,8000036c <fail>

800001fc <test_10>:
800001fc:	00a00193          	li	gp,10
80000200:	20000517          	auipc	a0,0x20000
80000204:	e8050513          	add	a0,a0,-384 # a0000080 <test_10_data>
80000208:	00052007          	flw	ft0,0(a0)
8000020c:	00452087          	flw	ft1,4(a0)
80000210:	00852107          	flw	ft2,8(a0)
80000214:	00c52683          	lw	a3,12(a0)
80000218:	a0102553          	feq.s	a0,ft0,ft1
8000021c:	001015f3          	fsflags	a1,zero
80000220:	01000613          	li	a2,16
80000224:	14d51463          	bne	a0,a3,8000036c <fail>
80000228:	14c59263          	bne	a1,a2,8000036c <fail>

8000022c <test_11>:
8000022c:	00b00193          	li	gp,11
80000230:	20000517          	auipc	a0,0x20000
80000234:	e6050513          	add	a0,a0,-416 # a0000090 <test_11_data>
80000238:	00052007          	flw	ft0,0(a0)
8000023c:	00452087          	flw	ft1,4(a0)
80000240:	00852107          	flw	ft2,8(a0)
80000244:	00c52683          	lw	a3,12(a0)
80000248:	a0101553          	flt.s	a0,ft0,ft1
8000024c:	001015f3          	fsflags	a1,zero
80000250:	01000613          	li	a2,16
80000254:	10d51c63          	bne	a0,a3,8000036c <fail>
80000258:	10c59a63          	bne	a1,a2,8000036c <fail>

8000025c <test_12>:
8000025c:	00c00193          	li	gp,12
80000260:	20000517          	auipc	a0,0x20000
80000264:	e4050513          	add	a0,a0,-448 # a00000a0 <test_12_data>
80000268:	00052007          	flw	ft0,0(a0)
8000026c:	00452087          	flw	ft1,4(a0)
80000270:	00852107          	flw	ft2,8(a0)
80000274:	00c52683          	lw	a3,12(a0)
80000278:	a0101553          	flt.s	a0,ft0,ft1
8000027c:	001015f3          	fsflags	a1,zero
80000280:	01000613          	li	a2,16
80000284:	0ed51463          	bne	a0,a3,8000036c <fail>
80000288:	0ec59263          	bne	a1,a2,8000036c <fail>

8000028c <test_13>:
8000028c:	00d00193          	li	gp,13
80000290:	20000517          	auipc	a0,0x20000
80000294:	e2050513          	add	a0,a0,-480 # a00000b0 <test_13_data>
80000298:	00052007          	flw	ft0,0(a0)
8000029c:	00452087          	flw	ft1,4(a0)
800002a0:	00852107          	flw	ft2,8(a0)
800002a4:	00c52683          	lw	a3,12(a0)
800002a8:	a0101553          	flt.s	a0,ft0,ft1
800002ac:	001015f3          	fsflags	a1,zero
800002b0:	01000613          	li	a2,16
800002b4:	0ad51c63          	bne	a0,a3,8000036c <fail>
800002b8:	0ac59a63          	bne	a1,a2,8000036c <fail>

800002bc <test_14>:
800002bc:	00e00193          	li	gp,14
800002c0:	20000517          	auipc	a0,0x20000
800002c4:	e0050513          	add	a0,a0,-512 # a00000c0 <test_14_data>
800002c8:	00052007          	flw	ft0,0(a0)
800002cc:	00452087          	flw	ft1,4(a0)
800002d0:	00852107          	flw	ft2,8(a0)
800002d4:	00c52683          	lw	a3,12(a0)
800002d8:	a0100553          	fle.s	a0,ft0,ft1
800002dc:	001015f3          	fsflags	a1,zero
800002e0:	01000613          	li	a2,16
800002e4:	08d51463          	bne	a0,a3,8000036c <fail>
800002e8:	08c59263          	bne	a1,a2,8000036c <fail>

800002ec <test_15>:
800002ec:	00f00193          	li	gp,15
800002f0:	20000517          	auipc	a0,0x20000
800002f4:	de050513          	add	a0,a0,-544 # a00000d0 <test_15_data>
800002f8:	00052007          	flw	ft0,0(a0)
800002fc:	00452087          	flw	ft1,4(a0)
80000300:	00852107          	flw	ft2,8(a0)
80000304:	00c52683          	lw	a3,12(a0)
80000308:	a0100553          	fle.s	a0,ft0,ft1
8000030c:	001015f3          	fsflags	a1,zero
80000310:	01000613          	li	a2,16
80000314:	04d51c63          	bne	a0,a3,8000036c <fail>
80000318:	04c59a63          	bne	a1,a2,8000036c <fail>

8000031c <test_16>:
8000031c:	01000193          	li	gp,16
80000320:	20000517          	auipc	a0,0x20000
80000324:	dc050513          	add	a0,a0,-576 # a00000e0 <test_16_data>
80000328:	00052007          	flw	ft0,0(a0)
8000032c:	00452087          	flw	ft1,4(a0)
80000330:	00852107          	flw	ft2,8(a0)
80000334:	00c52683          	lw	a3,12(a0)
80000338:	a0100553          	fle.s	a0,ft0,ft1
8000033c:	001015f3          	fsflags	a1,zero
80000340:	01000613          	li	a2,16
80000344:	02d51463          	bne	a0,a3,8000036c <fail>
80000348:	02c59263          	bne	a1,a2,8000036c <fail>
8000034c:	00301263          	bne	zero,gp,80000350 <pass>

80000350 <pass>:
80000350:	c0000f37          	lui	t5,0xc0000
80000354:	00100193          	li	gp,1
80000358:	003f2023          	sw	gp,0(t5) # c0000000 <tohost>
8000035c:	000f2223          	sw	zero,4(t5)
80000360:	fff00f93          	li	t6,-1
80000364:	01ff2423          	sw	t6,8(t5)

80000368 <rvtest_pass>:
80000368:	0000006f          	j	80000368 <rvtest_pass>

8000036c <fail>:
8000036c:	c0000f37          	lui	t5,0xc0000
80000370:	00119193          	sll	gp,gp,0x1
80000374:	0011e193          	or	gp,gp,1
80000378:	003f2023          	sw	gp,0(t5) # c0000000 <tohost>
8000037c:	003f2223          	sw	gp,4(t5)
80000380:	deadcfb7          	lui	t6,0xdeadc
80000384:	eeff8f93          	add	t6,t6,-273 # deadbeef <result+0x1eadbe6f>
80000388:	003f2423          	sw	gp,8(t5)

8000038c <rvtest_failed>:
8000038c:	0000006f          	j	8000038c <rvtest_failed>
80000390:	0000                	.insn	2, 0x
80000392:	0000                	.insn	2, 0x
80000394:	0000                	.insn	2, 0x
80000396:	0000                	.insn	2, 0x
80000398:	0000                	.insn	2, 0x
8000039a:	0000                	.insn	2, 0x
8000039c:	0000                	.insn	2, 0x
8000039e:	0000                	.insn	2, 0x
800003a0:	0000                	.insn	2, 0x
800003a2:	0000                	.insn	2, 0x
800003a4:	0000                	.insn	2, 0x
800003a6:	0000                	.insn	2, 0x
800003a8:	0000                	.insn	2, 0x
800003aa:	0000                	.insn	2, 0x
800003ac:	0000                	.insn	2, 0x
800003ae:	0000                	.insn	2, 0x
800003b0:	0000                	.insn	2, 0x
800003b2:	0000                	.insn	2, 0x
800003b4:	0000                	.insn	2, 0x
800003b6:	0000                	.insn	2, 0x
800003b8:	0000                	.insn	2, 0x
800003ba:	0000                	.insn	2, 0x
800003bc:	0000                	.insn	2, 0x
800003be:	0000                	.insn	2, 0x
800003c0:	0000                	.insn	2, 0x
800003c2:	0000                	.insn	2, 0x

Disassembly of section .data:

a0000000 <test_2_data>:
a0000000:	bfae147b          	.insn	4, 0xbfae147b
a0000004:	bfae147b          	.insn	4, 0xbfae147b
a0000008:	0000                	.insn	2, 0x
a000000a:	0000                	.insn	2, 0x
a000000c:	0001                	.insn	2, 0x0001
a000000e:	0000                	.insn	2, 0x

a0000010 <test_3_data>:
a0000010:	bfae147b          	.insn	4, 0xbfae147b
a0000014:	bfae147b          	.insn	4, 0xbfae147b
a0000018:	0000                	.insn	2, 0x
a000001a:	0000                	.insn	2, 0x
a000001c:	0001                	.insn	2, 0x0001
a000001e:	0000                	.insn	2, 0x

a0000020 <test_4_data>:
a0000020:	bfae147b          	.insn	4, 0xbfae147b
a0000024:	bfae147b          	.insn	4, 0xbfae147b
a0000028:	0000                	.insn	2, 0x
a000002a:	0000                	.insn	2, 0x
a000002c:	0000                	.insn	2, 0x
a000002e:	0000                	.insn	2, 0x

a0000030 <test_5_data>:
a0000030:	5c29                	.insn	2, 0x5c29
a0000032:	147bbfaf          	.insn	4, 0x147bbfaf
a0000036:	bfae                	.insn	2, 0xbfae
a0000038:	0000                	.insn	2, 0x
a000003a:	0000                	.insn	2, 0x
a000003c:	0000                	.insn	2, 0x
a000003e:	0000                	.insn	2, 0x

a0000040 <test_6_data>:
a0000040:	5c29                	.insn	2, 0x5c29
a0000042:	147bbfaf          	.insn	4, 0x147bbfaf
a0000046:	bfae                	.insn	2, 0xbfae
a0000048:	0000                	.insn	2, 0x
a000004a:	0000                	.insn	2, 0x
a000004c:	0001                	.insn	2, 0x0001
a000004e:	0000                	.insn	2, 0x

a0000050 <test_7_data>:
a0000050:	5c29                	.insn	2, 0x5c29
a0000052:	147bbfaf          	.insn	4, 0x147bbfaf
a0000056:	bfae                	.insn	2, 0xbfae
a0000058:	0000                	.insn	2, 0x
a000005a:	0000                	.insn	2, 0x
a000005c:	0001                	.insn	2, 0x0001
a000005e:	0000                	.insn	2, 0x

a0000060 <test_8_data>:
a0000060:	ffff                	.insn	2, 0xffff
a0000062:	7fff                	.insn	2, 0x7fff
a0000064:	0000                	.insn	2, 0x
a0000066:	0000                	.insn	2, 0x
a0000068:	0000                	.insn	2, 0x
a000006a:	0000                	.insn	2, 0x
a000006c:	0000                	.insn	2, 0x
a000006e:	0000                	.insn	2, 0x

a0000070 <test_9_data>:
a0000070:	ffff                	.insn	2, 0xffff
a0000072:	7fff                	.insn	2, 0x7fff
a0000074:	ffff                	.insn	2, 0xffff
a0000076:	7fff                	.insn	2, 0x7fff
a0000078:	0000                	.insn	2, 0x
a000007a:	0000                	.insn	2, 0x
a000007c:	0000                	.insn	2, 0x
a000007e:	0000                	.insn	2, 0x

a0000080 <test_10_data>:
a0000080:	0001                	.insn	2, 0x0001
a0000082:	7f80                	.insn	2, 0x7f80
a0000084:	0000                	.insn	2, 0x
a0000086:	0000                	.insn	2, 0x
a0000088:	0000                	.insn	2, 0x
a000008a:	0000                	.insn	2, 0x
a000008c:	0000                	.insn	2, 0x
a000008e:	0000                	.insn	2, 0x

a0000090 <test_11_data>:
a0000090:	ffff                	.insn	2, 0xffff
a0000092:	7fff                	.insn	2, 0x7fff
a0000094:	0000                	.insn	2, 0x
a0000096:	0000                	.insn	2, 0x
a0000098:	0000                	.insn	2, 0x
a000009a:	0000                	.insn	2, 0x
a000009c:	0000                	.insn	2, 0x
a000009e:	0000                	.insn	2, 0x

a00000a0 <test_12_data>:
a00000a0:	ffff                	.insn	2, 0xffff
a00000a2:	7fff                	.insn	2, 0x7fff
a00000a4:	ffff                	.insn	2, 0xffff
a00000a6:	7fff                	.insn	2, 0x7fff
a00000a8:	0000                	.insn	2, 0x
a00000aa:	0000                	.insn	2, 0x
a00000ac:	0000                	.insn	2, 0x
a00000ae:	0000                	.insn	2, 0x

a00000b0 <test_13_data>:
a00000b0:	0001                	.insn	2, 0x0001
a00000b2:	7f80                	.insn	2, 0x7f80
a00000b4:	0000                	.insn	2, 0x
a00000b6:	0000                	.insn	2, 0x
a00000b8:	0000                	.insn	2, 0x
a00000ba:	0000                	.insn	2, 0x
a00000bc:	0000                	.insn	2, 0x
a00000be:	0000                	.insn	2, 0x

a00000c0 <test_14_data>:
a00000c0:	ffff                	.insn	2, 0xffff
a00000c2:	7fff                	.insn	2, 0x7fff
a00000c4:	0000                	.insn	2, 0x
a00000c6:	0000                	.insn	2, 0x
a00000c8:	0000                	.insn	2, 0x
a00000ca:	0000                	.insn	2, 0x
a00000cc:	0000                	.insn	2, 0x
a00000ce:	0000                	.insn	2, 0x

a00000d0 <test_15_data>:
a00000d0:	ffff                	.insn	2, 0xffff
a00000d2:	7fff                	.insn	2, 0x7fff
a00000d4:	ffff                	.insn	2, 0xffff
a00000d6:	7fff                	.insn	2, 0x7fff
a00000d8:	0000                	.insn	2, 0x
a00000da:	0000                	.insn	2, 0x
a00000dc:	0000                	.insn	2, 0x
a00000de:	0000                	.insn	2, 0x

a00000e0 <test_16_data>:
a00000e0:	0001                	.insn	2, 0x0001
a00000e2:	7f80                	.insn	2, 0x7f80
a00000e4:	0000                	.insn	2, 0x
a00000e6:	0000                	.insn	2, 0x
a00000e8:	0000                	.insn	2, 0x
a00000ea:	0000                	.insn	2, 0x
a00000ec:	0000                	.insn	2, 0x
a00000ee:	0000                	.insn	2, 0x
