
rv32um-p-mulhu:     file format elf32-littleriscv


Disassembly of section .text.init:

80000000 <_start>:
80000000:	00000093          	li	ra,0
80000004:	00000113          	li	sp,0
80000008:	00000193          	li	gp,0
8000000c:	00000213          	li	tp,0
80000010:	00000293          	li	t0,0
80000014:	00000313          	li	t1,0
80000018:	00000393          	li	t2,0
8000001c:	00000413          	li	s0,0
80000020:	00000493          	li	s1,0
80000024:	00000513          	li	a0,0
80000028:	00000593          	li	a1,0
8000002c:	00000613          	li	a2,0
80000030:	00000693          	li	a3,0
80000034:	00000713          	li	a4,0
80000038:	00000793          	li	a5,0
8000003c:	00000813          	li	a6,0
80000040:	00000893          	li	a7,0
80000044:	00000913          	li	s2,0
80000048:	00000993          	li	s3,0
8000004c:	00000a13          	li	s4,0
80000050:	00000a93          	li	s5,0
80000054:	00000b13          	li	s6,0
80000058:	00000b93          	li	s7,0
8000005c:	00000c13          	li	s8,0
80000060:	00000c93          	li	s9,0
80000064:	00000d13          	li	s10,0
80000068:	00000d93          	li	s11,0
8000006c:	00000e13          	li	t3,0
80000070:	00000e93          	li	t4,0
80000074:	00000f13          	li	t5,0
80000078:	00000f93          	li	t6,0

8000007c <test_2>:
8000007c:	00200193          	li	gp,2
80000080:	00000093          	li	ra,0
80000084:	00000113          	li	sp,0
80000088:	0220b733          	mulhu	a4,ra,sp
8000008c:	00000393          	li	t2,0
80000090:	4c771863          	bne	a4,t2,80000560 <fail>

80000094 <test_3>:
80000094:	00300193          	li	gp,3
80000098:	00100093          	li	ra,1
8000009c:	00100113          	li	sp,1
800000a0:	0220b733          	mulhu	a4,ra,sp
800000a4:	00000393          	li	t2,0
800000a8:	4a771c63          	bne	a4,t2,80000560 <fail>

800000ac <test_4>:
800000ac:	00400193          	li	gp,4
800000b0:	00300093          	li	ra,3
800000b4:	00700113          	li	sp,7
800000b8:	0220b733          	mulhu	a4,ra,sp
800000bc:	00000393          	li	t2,0
800000c0:	4a771063          	bne	a4,t2,80000560 <fail>

800000c4 <test_5>:
800000c4:	00500193          	li	gp,5
800000c8:	00000093          	li	ra,0
800000cc:	ffff8137          	lui	sp,0xffff8
800000d0:	0220b733          	mulhu	a4,ra,sp
800000d4:	00000393          	li	t2,0
800000d8:	48771463          	bne	a4,t2,80000560 <fail>

800000dc <test_6>:
800000dc:	00600193          	li	gp,6
800000e0:	800000b7          	lui	ra,0x80000
800000e4:	00000113          	li	sp,0
800000e8:	0220b733          	mulhu	a4,ra,sp
800000ec:	00000393          	li	t2,0
800000f0:	46771863          	bne	a4,t2,80000560 <fail>

800000f4 <test_7>:
800000f4:	00700193          	li	gp,7
800000f8:	800000b7          	lui	ra,0x80000
800000fc:	ffff8137          	lui	sp,0xffff8
80000100:	0220b733          	mulhu	a4,ra,sp
80000104:	7fffc3b7          	lui	t2,0x7fffc
80000108:	44771c63          	bne	a4,t2,80000560 <fail>

8000010c <test_30>:
8000010c:	01e00193          	li	gp,30
80000110:	aaaab0b7          	lui	ra,0xaaaab
80000114:	aab08093          	add	ra,ra,-1365 # aaaaaaab <_end+0xaaaaaab>
80000118:	00030137          	lui	sp,0x30
8000011c:	e7d10113          	add	sp,sp,-387 # 2fe7d <_start-0x7ffd0183>
80000120:	0220b733          	mulhu	a4,ra,sp
80000124:	000203b7          	lui	t2,0x20
80000128:	efe38393          	add	t2,t2,-258 # 1fefe <_start-0x7ffe0102>
8000012c:	42771a63          	bne	a4,t2,80000560 <fail>

80000130 <test_31>:
80000130:	01f00193          	li	gp,31
80000134:	000300b7          	lui	ra,0x30
80000138:	e7d08093          	add	ra,ra,-387 # 2fe7d <_start-0x7ffd0183>
8000013c:	aaaab137          	lui	sp,0xaaaab
80000140:	aab10113          	add	sp,sp,-1365 # aaaaaaab <_end+0xaaaaaab>
80000144:	0220b733          	mulhu	a4,ra,sp
80000148:	000203b7          	lui	t2,0x20
8000014c:	efe38393          	add	t2,t2,-258 # 1fefe <_start-0x7ffe0102>
80000150:	40771863          	bne	a4,t2,80000560 <fail>

80000154 <test_32>:
80000154:	02000193          	li	gp,32
80000158:	ff0000b7          	lui	ra,0xff000
8000015c:	ff000137          	lui	sp,0xff000
80000160:	0220b733          	mulhu	a4,ra,sp
80000164:	fe0103b7          	lui	t2,0xfe010
80000168:	3e771c63          	bne	a4,t2,80000560 <fail>

8000016c <test_33>:
8000016c:	02100193          	li	gp,33
80000170:	fff00093          	li	ra,-1
80000174:	fff00113          	li	sp,-1
80000178:	0220b733          	mulhu	a4,ra,sp
8000017c:	ffe00393          	li	t2,-2
80000180:	3e771063          	bne	a4,t2,80000560 <fail>

80000184 <test_34>:
80000184:	02200193          	li	gp,34
80000188:	fff00093          	li	ra,-1
8000018c:	00100113          	li	sp,1
80000190:	0220b733          	mulhu	a4,ra,sp
80000194:	00000393          	li	t2,0
80000198:	3c771463          	bne	a4,t2,80000560 <fail>

8000019c <test_35>:
8000019c:	02300193          	li	gp,35
800001a0:	00100093          	li	ra,1
800001a4:	fff00113          	li	sp,-1
800001a8:	0220b733          	mulhu	a4,ra,sp
800001ac:	00000393          	li	t2,0
800001b0:	3a771863          	bne	a4,t2,80000560 <fail>

800001b4 <test_8>:
800001b4:	00800193          	li	gp,8
800001b8:	00d000b7          	lui	ra,0xd00
800001bc:	00b00137          	lui	sp,0xb00
800001c0:	0220b0b3          	mulhu	ra,ra,sp
800001c4:	000093b7          	lui	t2,0x9
800001c8:	f0038393          	add	t2,t2,-256 # 8f00 <_start-0x7fff7100>
800001cc:	38709a63          	bne	ra,t2,80000560 <fail>

800001d0 <test_9>:
800001d0:	00900193          	li	gp,9
800001d4:	00e000b7          	lui	ra,0xe00
800001d8:	00b00137          	lui	sp,0xb00
800001dc:	0220b133          	mulhu	sp,ra,sp
800001e0:	0000a3b7          	lui	t2,0xa
800001e4:	a0038393          	add	t2,t2,-1536 # 9a00 <_start-0x7fff6600>
800001e8:	36711c63          	bne	sp,t2,80000560 <fail>

800001ec <test_10>:
800001ec:	00a00193          	li	gp,10
800001f0:	00d000b7          	lui	ra,0xd00
800001f4:	0210b0b3          	mulhu	ra,ra,ra
800001f8:	0000b3b7          	lui	t2,0xb
800001fc:	90038393          	add	t2,t2,-1792 # a900 <_start-0x7fff5700>
80000200:	36709063          	bne	ra,t2,80000560 <fail>

80000204 <test_11>:
80000204:	00b00193          	li	gp,11
80000208:	00000213          	li	tp,0
8000020c:	00d000b7          	lui	ra,0xd00
80000210:	00b00137          	lui	sp,0xb00
80000214:	0220b733          	mulhu	a4,ra,sp
80000218:	00070313          	mv	t1,a4
8000021c:	00120213          	add	tp,tp,1 # 1 <_start-0x7fffffff>
80000220:	00200293          	li	t0,2
80000224:	fe5214e3          	bne	tp,t0,8000020c <test_11+0x8>
80000228:	000093b7          	lui	t2,0x9
8000022c:	f0038393          	add	t2,t2,-256 # 8f00 <_start-0x7fff7100>
80000230:	32731863          	bne	t1,t2,80000560 <fail>

80000234 <test_12>:
80000234:	00c00193          	li	gp,12
80000238:	00000213          	li	tp,0
8000023c:	00e000b7          	lui	ra,0xe00
80000240:	00b00137          	lui	sp,0xb00
80000244:	0220b733          	mulhu	a4,ra,sp
80000248:	00000013          	nop
8000024c:	00070313          	mv	t1,a4
80000250:	00120213          	add	tp,tp,1 # 1 <_start-0x7fffffff>
80000254:	00200293          	li	t0,2
80000258:	fe5212e3          	bne	tp,t0,8000023c <test_12+0x8>
8000025c:	0000a3b7          	lui	t2,0xa
80000260:	a0038393          	add	t2,t2,-1536 # 9a00 <_start-0x7fff6600>
80000264:	2e731e63          	bne	t1,t2,80000560 <fail>

80000268 <test_13>:
80000268:	00d00193          	li	gp,13
8000026c:	00000213          	li	tp,0
80000270:	00f000b7          	lui	ra,0xf00
80000274:	00b00137          	lui	sp,0xb00
80000278:	0220b733          	mulhu	a4,ra,sp
8000027c:	00000013          	nop
80000280:	00000013          	nop
80000284:	00070313          	mv	t1,a4
80000288:	00120213          	add	tp,tp,1 # 1 <_start-0x7fffffff>
8000028c:	00200293          	li	t0,2
80000290:	fe5210e3          	bne	tp,t0,80000270 <test_13+0x8>
80000294:	0000a3b7          	lui	t2,0xa
80000298:	50038393          	add	t2,t2,1280 # a500 <_start-0x7fff5b00>
8000029c:	2c731263          	bne	t1,t2,80000560 <fail>

800002a0 <test_14>:
800002a0:	00e00193          	li	gp,14
800002a4:	00000213          	li	tp,0
800002a8:	00d000b7          	lui	ra,0xd00
800002ac:	00b00137          	lui	sp,0xb00
800002b0:	0220b733          	mulhu	a4,ra,sp
800002b4:	00120213          	add	tp,tp,1 # 1 <_start-0x7fffffff>
800002b8:	00200293          	li	t0,2
800002bc:	fe5216e3          	bne	tp,t0,800002a8 <test_14+0x8>
800002c0:	000093b7          	lui	t2,0x9
800002c4:	f0038393          	add	t2,t2,-256 # 8f00 <_start-0x7fff7100>
800002c8:	28771c63          	bne	a4,t2,80000560 <fail>

800002cc <test_15>:
800002cc:	00f00193          	li	gp,15
800002d0:	00000213          	li	tp,0
800002d4:	00e000b7          	lui	ra,0xe00
800002d8:	00b00137          	lui	sp,0xb00
800002dc:	00000013          	nop
800002e0:	0220b733          	mulhu	a4,ra,sp
800002e4:	00120213          	add	tp,tp,1 # 1 <_start-0x7fffffff>
800002e8:	00200293          	li	t0,2
800002ec:	fe5214e3          	bne	tp,t0,800002d4 <test_15+0x8>
800002f0:	0000a3b7          	lui	t2,0xa
800002f4:	a0038393          	add	t2,t2,-1536 # 9a00 <_start-0x7fff6600>
800002f8:	26771463          	bne	a4,t2,80000560 <fail>

800002fc <test_16>:
800002fc:	01000193          	li	gp,16
80000300:	00000213          	li	tp,0
80000304:	00f000b7          	lui	ra,0xf00
80000308:	00b00137          	lui	sp,0xb00
8000030c:	00000013          	nop
80000310:	00000013          	nop
80000314:	0220b733          	mulhu	a4,ra,sp
80000318:	00120213          	add	tp,tp,1 # 1 <_start-0x7fffffff>
8000031c:	00200293          	li	t0,2
80000320:	fe5212e3          	bne	tp,t0,80000304 <test_16+0x8>
80000324:	0000a3b7          	lui	t2,0xa
80000328:	50038393          	add	t2,t2,1280 # a500 <_start-0x7fff5b00>
8000032c:	22771a63          	bne	a4,t2,80000560 <fail>

80000330 <test_17>:
80000330:	01100193          	li	gp,17
80000334:	00000213          	li	tp,0
80000338:	00d000b7          	lui	ra,0xd00
8000033c:	00000013          	nop
80000340:	00b00137          	lui	sp,0xb00
80000344:	0220b733          	mulhu	a4,ra,sp
80000348:	00120213          	add	tp,tp,1 # 1 <_start-0x7fffffff>
8000034c:	00200293          	li	t0,2
80000350:	fe5214e3          	bne	tp,t0,80000338 <test_17+0x8>
80000354:	000093b7          	lui	t2,0x9
80000358:	f0038393          	add	t2,t2,-256 # 8f00 <_start-0x7fff7100>
8000035c:	20771263          	bne	a4,t2,80000560 <fail>

80000360 <test_18>:
80000360:	01200193          	li	gp,18
80000364:	00000213          	li	tp,0
80000368:	00e000b7          	lui	ra,0xe00
8000036c:	00000013          	nop
80000370:	00b00137          	lui	sp,0xb00
80000374:	00000013          	nop
80000378:	0220b733          	mulhu	a4,ra,sp
8000037c:	00120213          	add	tp,tp,1 # 1 <_start-0x7fffffff>
80000380:	00200293          	li	t0,2
80000384:	fe5212e3          	bne	tp,t0,80000368 <test_18+0x8>
80000388:	0000a3b7          	lui	t2,0xa
8000038c:	a0038393          	add	t2,t2,-1536 # 9a00 <_start-0x7fff6600>
80000390:	1c771863          	bne	a4,t2,80000560 <fail>

80000394 <test_19>:
80000394:	01300193          	li	gp,19
80000398:	00000213          	li	tp,0
8000039c:	00f000b7          	lui	ra,0xf00
800003a0:	00000013          	nop
800003a4:	00000013          	nop
800003a8:	00b00137          	lui	sp,0xb00
800003ac:	0220b733          	mulhu	a4,ra,sp
800003b0:	00120213          	add	tp,tp,1 # 1 <_start-0x7fffffff>
800003b4:	00200293          	li	t0,2
800003b8:	fe5212e3          	bne	tp,t0,8000039c <test_19+0x8>
800003bc:	0000a3b7          	lui	t2,0xa
800003c0:	50038393          	add	t2,t2,1280 # a500 <_start-0x7fff5b00>
800003c4:	18771e63          	bne	a4,t2,80000560 <fail>

800003c8 <test_20>:
800003c8:	01400193          	li	gp,20
800003cc:	00000213          	li	tp,0
800003d0:	00b00137          	lui	sp,0xb00
800003d4:	00d000b7          	lui	ra,0xd00
800003d8:	0220b733          	mulhu	a4,ra,sp
800003dc:	00120213          	add	tp,tp,1 # 1 <_start-0x7fffffff>
800003e0:	00200293          	li	t0,2
800003e4:	fe5216e3          	bne	tp,t0,800003d0 <test_20+0x8>
800003e8:	000093b7          	lui	t2,0x9
800003ec:	f0038393          	add	t2,t2,-256 # 8f00 <_start-0x7fff7100>
800003f0:	16771863          	bne	a4,t2,80000560 <fail>

800003f4 <test_21>:
800003f4:	01500193          	li	gp,21
800003f8:	00000213          	li	tp,0
800003fc:	00b00137          	lui	sp,0xb00
80000400:	00e000b7          	lui	ra,0xe00
80000404:	00000013          	nop
80000408:	0220b733          	mulhu	a4,ra,sp
8000040c:	00120213          	add	tp,tp,1 # 1 <_start-0x7fffffff>
80000410:	00200293          	li	t0,2
80000414:	fe5214e3          	bne	tp,t0,800003fc <test_21+0x8>
80000418:	0000a3b7          	lui	t2,0xa
8000041c:	a0038393          	add	t2,t2,-1536 # 9a00 <_start-0x7fff6600>
80000420:	14771063          	bne	a4,t2,80000560 <fail>

80000424 <test_22>:
80000424:	01600193          	li	gp,22
80000428:	00000213          	li	tp,0
8000042c:	00b00137          	lui	sp,0xb00
80000430:	00f000b7          	lui	ra,0xf00
80000434:	00000013          	nop
80000438:	00000013          	nop
8000043c:	0220b733          	mulhu	a4,ra,sp
80000440:	00120213          	add	tp,tp,1 # 1 <_start-0x7fffffff>
80000444:	00200293          	li	t0,2
80000448:	fe5212e3          	bne	tp,t0,8000042c <test_22+0x8>
8000044c:	0000a3b7          	lui	t2,0xa
80000450:	50038393          	add	t2,t2,1280 # a500 <_start-0x7fff5b00>
80000454:	10771663          	bne	a4,t2,80000560 <fail>

80000458 <test_23>:
80000458:	01700193          	li	gp,23
8000045c:	00000213          	li	tp,0
80000460:	00b00137          	lui	sp,0xb00
80000464:	00000013          	nop
80000468:	00d000b7          	lui	ra,0xd00
8000046c:	0220b733          	mulhu	a4,ra,sp
80000470:	00120213          	add	tp,tp,1 # 1 <_start-0x7fffffff>
80000474:	00200293          	li	t0,2
80000478:	fe5214e3          	bne	tp,t0,80000460 <test_23+0x8>
8000047c:	000093b7          	lui	t2,0x9
80000480:	f0038393          	add	t2,t2,-256 # 8f00 <_start-0x7fff7100>
80000484:	0c771e63          	bne	a4,t2,80000560 <fail>

80000488 <test_24>:
80000488:	01800193          	li	gp,24
8000048c:	00000213          	li	tp,0
80000490:	00b00137          	lui	sp,0xb00
80000494:	00000013          	nop
80000498:	00e000b7          	lui	ra,0xe00
8000049c:	00000013          	nop
800004a0:	0220b733          	mulhu	a4,ra,sp
800004a4:	00120213          	add	tp,tp,1 # 1 <_start-0x7fffffff>
800004a8:	00200293          	li	t0,2
800004ac:	fe5212e3          	bne	tp,t0,80000490 <test_24+0x8>
800004b0:	0000a3b7          	lui	t2,0xa
800004b4:	a0038393          	add	t2,t2,-1536 # 9a00 <_start-0x7fff6600>
800004b8:	0a771463          	bne	a4,t2,80000560 <fail>

800004bc <test_25>:
800004bc:	01900193          	li	gp,25
800004c0:	00000213          	li	tp,0
800004c4:	00b00137          	lui	sp,0xb00
800004c8:	00000013          	nop
800004cc:	00000013          	nop
800004d0:	00f000b7          	lui	ra,0xf00
800004d4:	0220b733          	mulhu	a4,ra,sp
800004d8:	00120213          	add	tp,tp,1 # 1 <_start-0x7fffffff>
800004dc:	00200293          	li	t0,2
800004e0:	fe5212e3          	bne	tp,t0,800004c4 <test_25+0x8>
800004e4:	0000a3b7          	lui	t2,0xa
800004e8:	50038393          	add	t2,t2,1280 # a500 <_start-0x7fff5b00>
800004ec:	06771a63          	bne	a4,t2,80000560 <fail>

800004f0 <test_26>:
800004f0:	01a00193          	li	gp,26
800004f4:	7c0000b7          	lui	ra,0x7c000
800004f8:	02103133          	mulhu	sp,zero,ra
800004fc:	00000393          	li	t2,0
80000500:	06711063          	bne	sp,t2,80000560 <fail>

80000504 <test_27>:
80000504:	01b00193          	li	gp,27
80000508:	800000b7          	lui	ra,0x80000
8000050c:	0200b133          	mulhu	sp,ra,zero
80000510:	00000393          	li	t2,0
80000514:	04711663          	bne	sp,t2,80000560 <fail>

80000518 <test_28>:
80000518:	01c00193          	li	gp,28
8000051c:	020030b3          	mulhu	ra,zero,zero
80000520:	00000393          	li	t2,0
80000524:	02709e63          	bne	ra,t2,80000560 <fail>

80000528 <test_29>:
80000528:	01d00193          	li	gp,29
8000052c:	021000b7          	lui	ra,0x2100
80000530:	02200137          	lui	sp,0x2200
80000534:	0220b033          	mulhu	zero,ra,sp
80000538:	00000393          	li	t2,0
8000053c:	02701263          	bne	zero,t2,80000560 <fail>
80000540:	00301263          	bne	zero,gp,80000544 <pass>

80000544 <pass>:
80000544:	c0000f37          	lui	t5,0xc0000
80000548:	00100193          	li	gp,1
8000054c:	003f2023          	sw	gp,0(t5) # c0000000 <_tohost>
80000550:	000f2223          	sw	zero,4(t5)
80000554:	fff00f93          	li	t6,-1
80000558:	01ff2423          	sw	t6,8(t5)

8000055c <rvtest_pass>:
8000055c:	0000006f          	j	8000055c <rvtest_pass>

80000560 <fail>:
80000560:	c0000f37          	lui	t5,0xc0000
80000564:	00119193          	sll	gp,gp,0x1
80000568:	0011e193          	or	gp,gp,1
8000056c:	003f2023          	sw	gp,0(t5) # c0000000 <_tohost>
80000570:	003f2223          	sw	gp,4(t5)
80000574:	deadcfb7          	lui	t6,0xdeadc
80000578:	eeff8f93          	add	t6,t6,-273 # deadbeef <result+0x1eadbe6f>
8000057c:	003f2423          	sw	gp,8(t5)

80000580 <rvtest_failed>:
80000580:	0000006f          	j	80000580 <rvtest_failed>
