
rv32um-p-divu:     file format elf32-littleriscv


Disassembly of section .text.init:

80000000 <_start>:
80000000:	00000093          	li	ra,0
80000004:	00000113          	li	sp,0
80000008:	00000193          	li	gp,0
8000000c:	00000213          	li	tp,0
80000010:	00000293          	li	t0,0
80000014:	00000313          	li	t1,0
80000018:	00000393          	li	t2,0
8000001c:	00000413          	li	s0,0
80000020:	00000493          	li	s1,0
80000024:	00000513          	li	a0,0
80000028:	00000593          	li	a1,0
8000002c:	00000613          	li	a2,0
80000030:	00000693          	li	a3,0
80000034:	00000713          	li	a4,0
80000038:	00000793          	li	a5,0
8000003c:	00000813          	li	a6,0
80000040:	00000893          	li	a7,0
80000044:	00000913          	li	s2,0
80000048:	00000993          	li	s3,0
8000004c:	00000a13          	li	s4,0
80000050:	00000a93          	li	s5,0
80000054:	00000b13          	li	s6,0
80000058:	00000b93          	li	s7,0
8000005c:	00000c13          	li	s8,0
80000060:	00000c93          	li	s9,0
80000064:	00000d13          	li	s10,0
80000068:	00000d93          	li	s11,0
8000006c:	00000e13          	li	t3,0
80000070:	00000e93          	li	t4,0
80000074:	00000f13          	li	t5,0
80000078:	00000f93          	li	t6,0

8000007c <test_2>:
8000007c:	00200193          	li	gp,2
80000080:	01400093          	li	ra,20
80000084:	00600113          	li	sp,6
80000088:	0220d733          	divu	a4,ra,sp
8000008c:	00300393          	li	t2,3
80000090:	0e771463          	bne	a4,t2,80000178 <fail>

80000094 <test_3>:
80000094:	00300193          	li	gp,3
80000098:	fec00093          	li	ra,-20
8000009c:	00600113          	li	sp,6
800000a0:	0220d733          	divu	a4,ra,sp
800000a4:	2aaab3b7          	lui	t2,0x2aaab
800000a8:	aa738393          	add	t2,t2,-1369 # 2aaaaaa7 <_start-0x55555559>
800000ac:	0c771663          	bne	a4,t2,80000178 <fail>

800000b0 <test_4>:
800000b0:	00400193          	li	gp,4
800000b4:	01400093          	li	ra,20
800000b8:	ffa00113          	li	sp,-6
800000bc:	0220d733          	divu	a4,ra,sp
800000c0:	00000393          	li	t2,0
800000c4:	0a771a63          	bne	a4,t2,80000178 <fail>

800000c8 <test_5>:
800000c8:	00500193          	li	gp,5
800000cc:	fec00093          	li	ra,-20
800000d0:	ffa00113          	li	sp,-6
800000d4:	0220d733          	divu	a4,ra,sp
800000d8:	00000393          	li	t2,0
800000dc:	08771e63          	bne	a4,t2,80000178 <fail>

800000e0 <test_6>:
800000e0:	00600193          	li	gp,6
800000e4:	800000b7          	lui	ra,0x80000
800000e8:	00100113          	li	sp,1
800000ec:	0220d733          	divu	a4,ra,sp
800000f0:	800003b7          	lui	t2,0x80000
800000f4:	08771263          	bne	a4,t2,80000178 <fail>

800000f8 <test_7>:
800000f8:	00700193          	li	gp,7
800000fc:	800000b7          	lui	ra,0x80000
80000100:	fff00113          	li	sp,-1
80000104:	0220d733          	divu	a4,ra,sp
80000108:	00000393          	li	t2,0
8000010c:	06771663          	bne	a4,t2,80000178 <fail>

80000110 <test_8>:
80000110:	00800193          	li	gp,8
80000114:	800000b7          	lui	ra,0x80000
80000118:	00000113          	li	sp,0
8000011c:	0220d733          	divu	a4,ra,sp
80000120:	fff00393          	li	t2,-1
80000124:	04771a63          	bne	a4,t2,80000178 <fail>

80000128 <test_9>:
80000128:	00900193          	li	gp,9
8000012c:	00100093          	li	ra,1
80000130:	00000113          	li	sp,0
80000134:	0220d733          	divu	a4,ra,sp
80000138:	fff00393          	li	t2,-1
8000013c:	02771e63          	bne	a4,t2,80000178 <fail>

80000140 <test_10>:
80000140:	00a00193          	li	gp,10
80000144:	00000093          	li	ra,0
80000148:	00000113          	li	sp,0
8000014c:	0220d733          	divu	a4,ra,sp
80000150:	fff00393          	li	t2,-1
80000154:	02771263          	bne	a4,t2,80000178 <fail>
80000158:	00301263          	bne	zero,gp,8000015c <pass>

8000015c <pass>:
8000015c:	c0000f37          	lui	t5,0xc0000
80000160:	00100193          	li	gp,1
80000164:	003f2023          	sw	gp,0(t5) # c0000000 <_tohost>
80000168:	000f2223          	sw	zero,4(t5)
8000016c:	fff00f93          	li	t6,-1
80000170:	01ff2423          	sw	t6,8(t5)

80000174 <rvtest_pass>:
80000174:	0000006f          	j	80000174 <rvtest_pass>

80000178 <fail>:
80000178:	c0000f37          	lui	t5,0xc0000
8000017c:	00119193          	sll	gp,gp,0x1
80000180:	0011e193          	or	gp,gp,1
80000184:	003f2023          	sw	gp,0(t5) # c0000000 <_tohost>
80000188:	003f2223          	sw	gp,4(t5)
8000018c:	deadcfb7          	lui	t6,0xdeadc
80000190:	eeff8f93          	add	t6,t6,-273 # deadbeef <result+0x1eadbe6f>
80000194:	003f2423          	sw	gp,8(t5)

80000198 <rvtest_failed>:
80000198:	0000006f          	j	80000198 <rvtest_failed>
8000019c:	0000                	.insn	2, 0x
8000019e:	0000                	.insn	2, 0x
800001a0:	0000                	.insn	2, 0x
800001a2:	0000                	.insn	2, 0x
800001a4:	0000                	.insn	2, 0x
800001a6:	0000                	.insn	2, 0x
800001a8:	0000                	.insn	2, 0x
800001aa:	0000                	.insn	2, 0x
800001ac:	0000                	.insn	2, 0x
800001ae:	0000                	.insn	2, 0x
800001b0:	0000                	.insn	2, 0x
800001b2:	0000                	.insn	2, 0x
800001b4:	0000                	.insn	2, 0x
800001b6:	0000                	.insn	2, 0x
800001b8:	0000                	.insn	2, 0x
800001ba:	0000                	.insn	2, 0x
800001bc:	0000                	.insn	2, 0x
800001be:	0000                	.insn	2, 0x
800001c0:	0000                	.insn	2, 0x
800001c2:	0000                	.insn	2, 0x
