
rv32uzfh-p-fcvt_w:     file format elf32-littleriscv


Disassembly of section .text.init:

80000000 <_start>:
80000000:	00000093          	li	ra,0
80000004:	00000113          	li	sp,0
80000008:	00000193          	li	gp,0
8000000c:	00000213          	li	tp,0
80000010:	00000293          	li	t0,0
80000014:	00000313          	li	t1,0
80000018:	00000393          	li	t2,0
8000001c:	00000413          	li	s0,0
80000020:	00000493          	li	s1,0
80000024:	00000513          	li	a0,0
80000028:	00000593          	li	a1,0
8000002c:	00000613          	li	a2,0
80000030:	00000693          	li	a3,0
80000034:	00000713          	li	a4,0
80000038:	00000793          	li	a5,0
8000003c:	00000813          	li	a6,0
80000040:	00000893          	li	a7,0
80000044:	00000913          	li	s2,0
80000048:	00000993          	li	s3,0
8000004c:	00000a13          	li	s4,0
80000050:	00000a93          	li	s5,0
80000054:	00000b13          	li	s6,0
80000058:	00000b93          	li	s7,0
8000005c:	00000c13          	li	s8,0
80000060:	00000c93          	li	s9,0
80000064:	00000d13          	li	s10,0
80000068:	00000d93          	li	s11,0
8000006c:	00000e13          	li	t3,0
80000070:	00000e93          	li	t4,0
80000074:	00000f13          	li	t5,0
80000078:	00000f93          	li	t6,0

8000007c <test_2>:
8000007c:	00200193          	li	gp,2
80000080:	20000517          	auipc	a0,0x20000
80000084:	f8050513          	add	a0,a0,-128 # a0000000 <test_2_data>
80000088:	00051007          	flh	ft0,0(a0)
8000008c:	00251087          	flh	ft1,2(a0)
80000090:	00451107          	flh	ft2,4(a0)
80000094:	00651683          	lh	a3,6(a0)
80000098:	c4001553          	fcvt.w.h	a0,ft0,rtz
8000009c:	001015f3          	fsflags	a1,zero
800000a0:	00100613          	li	a2,1
800000a4:	3ed51263          	bne	a0,a3,80000488 <fail>
800000a8:	3ec59063          	bne	a1,a2,80000488 <fail>

800000ac <test_3>:
800000ac:	00300193          	li	gp,3
800000b0:	20000517          	auipc	a0,0x20000
800000b4:	f5a50513          	add	a0,a0,-166 # a000000a <test_3_data>
800000b8:	00051007          	flh	ft0,0(a0)
800000bc:	00251087          	flh	ft1,2(a0)
800000c0:	00451107          	flh	ft2,4(a0)
800000c4:	00651683          	lh	a3,6(a0)
800000c8:	c4001553          	fcvt.w.h	a0,ft0,rtz
800000cc:	001015f3          	fsflags	a1,zero
800000d0:	00000613          	li	a2,0
800000d4:	3ad51a63          	bne	a0,a3,80000488 <fail>
800000d8:	3ac59863          	bne	a1,a2,80000488 <fail>

800000dc <test_4>:
800000dc:	00400193          	li	gp,4
800000e0:	20000517          	auipc	a0,0x20000
800000e4:	f3450513          	add	a0,a0,-204 # a0000014 <test_4_data>
800000e8:	00051007          	flh	ft0,0(a0)
800000ec:	00251087          	flh	ft1,2(a0)
800000f0:	00451107          	flh	ft2,4(a0)
800000f4:	00651683          	lh	a3,6(a0)
800000f8:	c4001553          	fcvt.w.h	a0,ft0,rtz
800000fc:	001015f3          	fsflags	a1,zero
80000100:	00100613          	li	a2,1
80000104:	38d51263          	bne	a0,a3,80000488 <fail>
80000108:	38c59063          	bne	a1,a2,80000488 <fail>

8000010c <test_5>:
8000010c:	00500193          	li	gp,5
80000110:	20000517          	auipc	a0,0x20000
80000114:	f0e50513          	add	a0,a0,-242 # a000001e <test_5_data>
80000118:	00051007          	flh	ft0,0(a0)
8000011c:	00251087          	flh	ft1,2(a0)
80000120:	00451107          	flh	ft2,4(a0)
80000124:	00651683          	lh	a3,6(a0)
80000128:	c4001553          	fcvt.w.h	a0,ft0,rtz
8000012c:	001015f3          	fsflags	a1,zero
80000130:	00100613          	li	a2,1
80000134:	34d51a63          	bne	a0,a3,80000488 <fail>
80000138:	34c59863          	bne	a1,a2,80000488 <fail>

8000013c <test_6>:
8000013c:	00600193          	li	gp,6
80000140:	20000517          	auipc	a0,0x20000
80000144:	ee850513          	add	a0,a0,-280 # a0000028 <test_6_data>
80000148:	00051007          	flh	ft0,0(a0)
8000014c:	00251087          	flh	ft1,2(a0)
80000150:	00451107          	flh	ft2,4(a0)
80000154:	00651683          	lh	a3,6(a0)
80000158:	c4001553          	fcvt.w.h	a0,ft0,rtz
8000015c:	001015f3          	fsflags	a1,zero
80000160:	00000613          	li	a2,0
80000164:	32d51263          	bne	a0,a3,80000488 <fail>
80000168:	32c59063          	bne	a1,a2,80000488 <fail>

8000016c <test_7>:
8000016c:	00700193          	li	gp,7
80000170:	20000517          	auipc	a0,0x20000
80000174:	ec250513          	add	a0,a0,-318 # a0000032 <test_7_data>
80000178:	00051007          	flh	ft0,0(a0)
8000017c:	00251087          	flh	ft1,2(a0)
80000180:	00451107          	flh	ft2,4(a0)
80000184:	00651683          	lh	a3,6(a0)
80000188:	c4001553          	fcvt.w.h	a0,ft0,rtz
8000018c:	001015f3          	fsflags	a1,zero
80000190:	00100613          	li	a2,1
80000194:	2ed51a63          	bne	a0,a3,80000488 <fail>
80000198:	2ec59863          	bne	a1,a2,80000488 <fail>

8000019c <test_8>:
8000019c:	00800193          	li	gp,8
800001a0:	20000517          	auipc	a0,0x20000
800001a4:	e9c50513          	add	a0,a0,-356 # a000003c <test_8_data>
800001a8:	00051007          	flh	ft0,0(a0)
800001ac:	00251087          	flh	ft1,2(a0)
800001b0:	00451107          	flh	ft2,4(a0)
800001b4:	00651683          	lh	a3,6(a0)
800001b8:	c4001553          	fcvt.w.h	a0,ft0,rtz
800001bc:	001015f3          	fsflags	a1,zero
800001c0:	00000613          	li	a2,0
800001c4:	2cd51263          	bne	a0,a3,80000488 <fail>
800001c8:	2cc59063          	bne	a1,a2,80000488 <fail>

800001cc <test_9>:
800001cc:	00900193          	li	gp,9
800001d0:	20000517          	auipc	a0,0x20000
800001d4:	e7650513          	add	a0,a0,-394 # a0000046 <test_9_data>
800001d8:	00051007          	flh	ft0,0(a0)
800001dc:	00251087          	flh	ft1,2(a0)
800001e0:	00451107          	flh	ft2,4(a0)
800001e4:	00651683          	lh	a3,6(a0)
800001e8:	c4001553          	fcvt.w.h	a0,ft0,rtz
800001ec:	001015f3          	fsflags	a1,zero
800001f0:	00000613          	li	a2,0
800001f4:	28d51a63          	bne	a0,a3,80000488 <fail>
800001f8:	28c59863          	bne	a1,a2,80000488 <fail>

800001fc <test_12>:
800001fc:	00c00193          	li	gp,12
80000200:	20000517          	auipc	a0,0x20000
80000204:	e5050513          	add	a0,a0,-432 # a0000050 <test_12_data>
80000208:	00051007          	flh	ft0,0(a0)
8000020c:	00251087          	flh	ft1,2(a0)
80000210:	00451107          	flh	ft2,4(a0)
80000214:	00651683          	lh	a3,6(a0)
80000218:	c4101553          	fcvt.wu.h	a0,ft0,rtz
8000021c:	001015f3          	fsflags	a1,zero
80000220:	01000613          	li	a2,16
80000224:	26d51263          	bne	a0,a3,80000488 <fail>
80000228:	26c59063          	bne	a1,a2,80000488 <fail>

8000022c <test_13>:
8000022c:	00d00193          	li	gp,13
80000230:	20000517          	auipc	a0,0x20000
80000234:	e2a50513          	add	a0,a0,-470 # a000005a <test_13_data>
80000238:	00051007          	flh	ft0,0(a0)
8000023c:	00251087          	flh	ft1,2(a0)
80000240:	00451107          	flh	ft2,4(a0)
80000244:	00651683          	lh	a3,6(a0)
80000248:	c4101553          	fcvt.wu.h	a0,ft0,rtz
8000024c:	001015f3          	fsflags	a1,zero
80000250:	01000613          	li	a2,16
80000254:	22d51a63          	bne	a0,a3,80000488 <fail>
80000258:	22c59863          	bne	a1,a2,80000488 <fail>

8000025c <test_14>:
8000025c:	00e00193          	li	gp,14
80000260:	20000517          	auipc	a0,0x20000
80000264:	e0450513          	add	a0,a0,-508 # a0000064 <test_14_data>
80000268:	00051007          	flh	ft0,0(a0)
8000026c:	00251087          	flh	ft1,2(a0)
80000270:	00451107          	flh	ft2,4(a0)
80000274:	00651683          	lh	a3,6(a0)
80000278:	c4101553          	fcvt.wu.h	a0,ft0,rtz
8000027c:	001015f3          	fsflags	a1,zero
80000280:	00100613          	li	a2,1
80000284:	20d51263          	bne	a0,a3,80000488 <fail>
80000288:	20c59063          	bne	a1,a2,80000488 <fail>

8000028c <test_15>:
8000028c:	00f00193          	li	gp,15
80000290:	20000517          	auipc	a0,0x20000
80000294:	dde50513          	add	a0,a0,-546 # a000006e <test_15_data>
80000298:	00051007          	flh	ft0,0(a0)
8000029c:	00251087          	flh	ft1,2(a0)
800002a0:	00451107          	flh	ft2,4(a0)
800002a4:	00651683          	lh	a3,6(a0)
800002a8:	c4101553          	fcvt.wu.h	a0,ft0,rtz
800002ac:	001015f3          	fsflags	a1,zero
800002b0:	00100613          	li	a2,1
800002b4:	1cd51a63          	bne	a0,a3,80000488 <fail>
800002b8:	1cc59863          	bne	a1,a2,80000488 <fail>

800002bc <test_16>:
800002bc:	01000193          	li	gp,16
800002c0:	20000517          	auipc	a0,0x20000
800002c4:	db850513          	add	a0,a0,-584 # a0000078 <test_16_data>
800002c8:	00051007          	flh	ft0,0(a0)
800002cc:	00251087          	flh	ft1,2(a0)
800002d0:	00451107          	flh	ft2,4(a0)
800002d4:	00651683          	lh	a3,6(a0)
800002d8:	c4101553          	fcvt.wu.h	a0,ft0,rtz
800002dc:	001015f3          	fsflags	a1,zero
800002e0:	00000613          	li	a2,0
800002e4:	1ad51263          	bne	a0,a3,80000488 <fail>
800002e8:	1ac59063          	bne	a1,a2,80000488 <fail>

800002ec <test_17>:
800002ec:	01100193          	li	gp,17
800002f0:	20000517          	auipc	a0,0x20000
800002f4:	d9250513          	add	a0,a0,-622 # a0000082 <test_17_data>
800002f8:	00051007          	flh	ft0,0(a0)
800002fc:	00251087          	flh	ft1,2(a0)
80000300:	00451107          	flh	ft2,4(a0)
80000304:	00651683          	lh	a3,6(a0)
80000308:	c4101553          	fcvt.wu.h	a0,ft0,rtz
8000030c:	001015f3          	fsflags	a1,zero
80000310:	00100613          	li	a2,1
80000314:	16d51a63          	bne	a0,a3,80000488 <fail>
80000318:	16c59863          	bne	a1,a2,80000488 <fail>

8000031c <test_18>:
8000031c:	01200193          	li	gp,18
80000320:	20000517          	auipc	a0,0x20000
80000324:	d6c50513          	add	a0,a0,-660 # a000008c <test_18_data>
80000328:	00051007          	flh	ft0,0(a0)
8000032c:	00251087          	flh	ft1,2(a0)
80000330:	00451107          	flh	ft2,4(a0)
80000334:	00651683          	lh	a3,6(a0)
80000338:	c4101553          	fcvt.wu.h	a0,ft0,rtz
8000033c:	001015f3          	fsflags	a1,zero
80000340:	01000613          	li	a2,16
80000344:	14d51263          	bne	a0,a3,80000488 <fail>
80000348:	14c59063          	bne	a1,a2,80000488 <fail>

8000034c <test_19>:
8000034c:	01300193          	li	gp,19
80000350:	20000517          	auipc	a0,0x20000
80000354:	d4650513          	add	a0,a0,-698 # a0000096 <test_19_data>
80000358:	00051007          	flh	ft0,0(a0)
8000035c:	00251087          	flh	ft1,2(a0)
80000360:	00451107          	flh	ft2,4(a0)
80000364:	00651683          	lh	a3,6(a0)
80000368:	c4101553          	fcvt.wu.h	a0,ft0,rtz
8000036c:	001015f3          	fsflags	a1,zero
80000370:	00000613          	li	a2,0
80000374:	10d51a63          	bne	a0,a3,80000488 <fail>
80000378:	10c59863          	bne	a1,a2,80000488 <fail>

8000037c <test_42>:
8000037c:	02a00193          	li	gp,42
80000380:	20000097          	auipc	ra,0x20000
80000384:	d2008093          	add	ra,ra,-736 # a00000a0 <begin_signature>
80000388:	0000a087          	flw	ft1,0(ra)
8000038c:	c400f0d3          	fcvt.w.h	ra,ft1
80000390:	800003b7          	lui	t2,0x80000
80000394:	fff38393          	add	t2,t2,-1 # 7fffffff <_start-0x1>
80000398:	0e709863          	bne	ra,t2,80000488 <fail>

8000039c <test_43>:
8000039c:	02b00193          	li	gp,43
800003a0:	20000097          	auipc	ra,0x20000
800003a4:	d0008093          	add	ra,ra,-768 # a00000a0 <begin_signature>
800003a8:	0080a087          	flw	ft1,8(ra)
800003ac:	c400f0d3          	fcvt.w.h	ra,ft1
800003b0:	800003b7          	lui	t2,0x80000
800003b4:	0c709a63          	bne	ra,t2,80000488 <fail>

800003b8 <test_52>:
800003b8:	03400193          	li	gp,52
800003bc:	20000097          	auipc	ra,0x20000
800003c0:	ce408093          	add	ra,ra,-796 # a00000a0 <begin_signature>
800003c4:	0040a087          	flw	ft1,4(ra)
800003c8:	c400f0d3          	fcvt.w.h	ra,ft1
800003cc:	800003b7          	lui	t2,0x80000
800003d0:	fff38393          	add	t2,t2,-1 # 7fffffff <_start-0x1>
800003d4:	0a709a63          	bne	ra,t2,80000488 <fail>

800003d8 <test_53>:
800003d8:	03500193          	li	gp,53
800003dc:	20000097          	auipc	ra,0x20000
800003e0:	cc408093          	add	ra,ra,-828 # a00000a0 <begin_signature>
800003e4:	00c0a087          	flw	ft1,12(ra)
800003e8:	c400f0d3          	fcvt.w.h	ra,ft1
800003ec:	800003b7          	lui	t2,0x80000
800003f0:	fff38393          	add	t2,t2,-1 # 7fffffff <_start-0x1>
800003f4:	08709a63          	bne	ra,t2,80000488 <fail>

800003f8 <test_62>:
800003f8:	03e00193          	li	gp,62
800003fc:	20000097          	auipc	ra,0x20000
80000400:	ca408093          	add	ra,ra,-860 # a00000a0 <begin_signature>
80000404:	0000a087          	flw	ft1,0(ra)
80000408:	c410f0d3          	fcvt.wu.h	ra,ft1
8000040c:	fff00393          	li	t2,-1
80000410:	06709c63          	bne	ra,t2,80000488 <fail>

80000414 <test_63>:
80000414:	03f00193          	li	gp,63
80000418:	20000097          	auipc	ra,0x20000
8000041c:	c8808093          	add	ra,ra,-888 # a00000a0 <begin_signature>
80000420:	0040a087          	flw	ft1,4(ra)
80000424:	c410f0d3          	fcvt.wu.h	ra,ft1
80000428:	fff00393          	li	t2,-1
8000042c:	04709e63          	bne	ra,t2,80000488 <fail>

80000430 <test_64>:
80000430:	04000193          	li	gp,64
80000434:	20000097          	auipc	ra,0x20000
80000438:	c6c08093          	add	ra,ra,-916 # a00000a0 <begin_signature>
8000043c:	0080a087          	flw	ft1,8(ra)
80000440:	c410f0d3          	fcvt.wu.h	ra,ft1
80000444:	00000393          	li	t2,0
80000448:	04709063          	bne	ra,t2,80000488 <fail>

8000044c <test_65>:
8000044c:	04100193          	li	gp,65
80000450:	20000097          	auipc	ra,0x20000
80000454:	c5008093          	add	ra,ra,-944 # a00000a0 <begin_signature>
80000458:	00c0a087          	flw	ft1,12(ra)
8000045c:	c410f0d3          	fcvt.wu.h	ra,ft1
80000460:	fff00393          	li	t2,-1
80000464:	02709263          	bne	ra,t2,80000488 <fail>
80000468:	00301263          	bne	zero,gp,8000046c <pass>

8000046c <pass>:
8000046c:	c0000f37          	lui	t5,0xc0000
80000470:	00100193          	li	gp,1
80000474:	003f2023          	sw	gp,0(t5) # c0000000 <tohost>
80000478:	000f2223          	sw	zero,4(t5)
8000047c:	fff00f93          	li	t6,-1
80000480:	01ff2423          	sw	t6,8(t5)

80000484 <rvtest_pass>:
80000484:	0000006f          	j	80000484 <rvtest_pass>

80000488 <fail>:
80000488:	c0000f37          	lui	t5,0xc0000
8000048c:	00119193          	sll	gp,gp,0x1
80000490:	0011e193          	or	gp,gp,1
80000494:	003f2023          	sw	gp,0(t5) # c0000000 <tohost>
80000498:	003f2223          	sw	gp,4(t5)
8000049c:	deadcfb7          	lui	t6,0xdeadc
800004a0:	eeff8f93          	add	t6,t6,-273 # deadbeef <result+0x1eadbe6f>
800004a4:	003f2423          	sw	gp,8(t5)

800004a8 <rvtest_failed>:
800004a8:	0000006f          	j	800004a8 <rvtest_failed>
800004ac:	0000                	.insn	2, 0x
800004ae:	0000                	.insn	2, 0x
800004b0:	0000                	.insn	2, 0x
800004b2:	0000                	.insn	2, 0x
800004b4:	0000                	.insn	2, 0x
800004b6:	0000                	.insn	2, 0x
800004b8:	0000                	.insn	2, 0x
800004ba:	0000                	.insn	2, 0x
800004bc:	0000                	.insn	2, 0x
800004be:	0000                	.insn	2, 0x
800004c0:	0000                	.insn	2, 0x
800004c2:	0000                	.insn	2, 0x

Disassembly of section .data:

a0000000 <test_2_data>:
a0000000:	bc66                	.insn	2, 0xbc66
a0000002:	0000                	.insn	2, 0x
a0000004:	0000                	.insn	2, 0x
a0000006:	ffff                	.insn	2, 0xffff
a0000008:	ffff                	.insn	2, 0xffff

a000000a <test_3_data>:
a000000a:	bc00                	.insn	2, 0xbc00
a000000c:	0000                	.insn	2, 0x
a000000e:	0000                	.insn	2, 0x
a0000010:	ffff                	.insn	2, 0xffff
a0000012:	ffff                	.insn	2, 0xffff

a0000014 <test_4_data>:
a0000014:	0000bb33          	sltu	s6,ra,zero
a0000018:	0000                	.insn	2, 0x
a000001a:	0000                	.insn	2, 0x
a000001c:	0000                	.insn	2, 0x

a000001e <test_5_data>:
a000001e:	00003b33          	snez	s6,zero
a0000022:	0000                	.insn	2, 0x
a0000024:	0000                	.insn	2, 0x
a0000026:	0000                	.insn	2, 0x

a0000028 <test_6_data>:
a0000028:	3c00                	.insn	2, 0x3c00
a000002a:	0000                	.insn	2, 0x
a000002c:	0000                	.insn	2, 0x
a000002e:	0001                	.insn	2, 0x0001
a0000030:	0000                	.insn	2, 0x

a0000032 <test_7_data>:
a0000032:	3c66                	.insn	2, 0x3c66
a0000034:	0000                	.insn	2, 0x
a0000036:	0000                	.insn	2, 0x
a0000038:	0001                	.insn	2, 0x0001
a000003a:	0000                	.insn	2, 0x

a000003c <test_8_data>:
a000003c:	0000e803          	.insn	4, 0xe803
a0000040:	0000                	.insn	2, 0x
a0000042:	f7fa                	.insn	2, 0xf7fa
a0000044:	ffff                	.insn	2, 0xffff

a0000046 <test_9_data>:
a0000046:	00006803          	.insn	4, 0x6803
a000004a:	0000                	.insn	2, 0x
a000004c:	0806                	.insn	2, 0x0806
a000004e:	0000                	.insn	2, 0x

a0000050 <test_12_data>:
a0000050:	c200                	.insn	2, 0xc200
a0000052:	0000                	.insn	2, 0x
a0000054:	0000                	.insn	2, 0x
a0000056:	0000                	.insn	2, 0x
a0000058:	0000                	.insn	2, 0x

a000005a <test_13_data>:
a000005a:	bc00                	.insn	2, 0xbc00
a000005c:	0000                	.insn	2, 0x
a000005e:	0000                	.insn	2, 0x
a0000060:	0000                	.insn	2, 0x
a0000062:	0000                	.insn	2, 0x

a0000064 <test_14_data>:
a0000064:	0000bb33          	sltu	s6,ra,zero
a0000068:	0000                	.insn	2, 0x
a000006a:	0000                	.insn	2, 0x
a000006c:	0000                	.insn	2, 0x

a000006e <test_15_data>:
a000006e:	00003b33          	snez	s6,zero
a0000072:	0000                	.insn	2, 0x
a0000074:	0000                	.insn	2, 0x
a0000076:	0000                	.insn	2, 0x

a0000078 <test_16_data>:
a0000078:	3c00                	.insn	2, 0x3c00
a000007a:	0000                	.insn	2, 0x
a000007c:	0000                	.insn	2, 0x
a000007e:	0001                	.insn	2, 0x0001
a0000080:	0000                	.insn	2, 0x

a0000082 <test_17_data>:
a0000082:	3c66                	.insn	2, 0x3c66
a0000084:	0000                	.insn	2, 0x
a0000086:	0000                	.insn	2, 0x
a0000088:	0001                	.insn	2, 0x0001
a000008a:	0000                	.insn	2, 0x

a000008c <test_18_data>:
a000008c:	0000e803          	.insn	4, 0xe803
a0000090:	0000                	.insn	2, 0x
a0000092:	0000                	.insn	2, 0x
a0000094:	0000                	.insn	2, 0x

a0000096 <test_19_data>:
a0000096:	00006803          	.insn	4, 0x6803
a000009a:	0000                	.insn	2, 0x
a000009c:	0806                	.insn	2, 0x0806
a000009e:	0000                	.insn	2, 0x

a00000a0 <begin_signature>:
a00000a0:	ffff                	.insn	2, 0xffff
a00000a2:	ffff                	.insn	2, 0xffff
a00000a4:	7fff                	.insn	2, 0x7fff
a00000a6:	ffff                	.insn	2, 0xffff
a00000a8:	fc00                	.insn	2, 0xfc00
a00000aa:	ffff                	.insn	2, 0xffff
a00000ac:	7c00                	.insn	2, 0x7c00
a00000ae:	ffff                	.insn	2, 0xffff
