
rv32uf-p-fclass:     file format elf32-littleriscv


Disassembly of section .text.init:

80000000 <_start>:
80000000:	00000093          	li	ra,0
80000004:	00000113          	li	sp,0
80000008:	00000193          	li	gp,0
8000000c:	00000213          	li	tp,0
80000010:	00000293          	li	t0,0
80000014:	00000313          	li	t1,0
80000018:	00000393          	li	t2,0
8000001c:	00000413          	li	s0,0
80000020:	00000493          	li	s1,0
80000024:	00000513          	li	a0,0
80000028:	00000593          	li	a1,0
8000002c:	00000613          	li	a2,0
80000030:	00000693          	li	a3,0
80000034:	00000713          	li	a4,0
80000038:	00000793          	li	a5,0
8000003c:	00000813          	li	a6,0
80000040:	00000893          	li	a7,0
80000044:	00000913          	li	s2,0
80000048:	00000993          	li	s3,0
8000004c:	00000a13          	li	s4,0
80000050:	00000a93          	li	s5,0
80000054:	00000b13          	li	s6,0
80000058:	00000b93          	li	s7,0
8000005c:	00000c13          	li	s8,0
80000060:	00000c93          	li	s9,0
80000064:	00000d13          	li	s10,0
80000068:	00000d93          	li	s11,0
8000006c:	00000e13          	li	t3,0
80000070:	00000e93          	li	t4,0
80000074:	00000f13          	li	t5,0
80000078:	00000f93          	li	t6,0

8000007c <test_2>:
8000007c:	00200193          	li	gp,2
80000080:	ff800537          	lui	a0,0xff800
80000084:	f0050553          	fmv.w.x	fa0,a0
80000088:	e0051553          	fclass.s	a0,fa0
8000008c:	00100393          	li	t2,1
80000090:	10751463          	bne	a0,t2,80000198 <fail>

80000094 <test_3>:
80000094:	00300193          	li	gp,3
80000098:	bf800537          	lui	a0,0xbf800
8000009c:	f0050553          	fmv.w.x	fa0,a0
800000a0:	e0051553          	fclass.s	a0,fa0
800000a4:	00200393          	li	t2,2
800000a8:	0e751863          	bne	a0,t2,80000198 <fail>

800000ac <test_4>:
800000ac:	00400193          	li	gp,4
800000b0:	80800537          	lui	a0,0x80800
800000b4:	fff50513          	add	a0,a0,-1 # 807fffff <rvtest_failed+0x7ffe47>
800000b8:	f0050553          	fmv.w.x	fa0,a0
800000bc:	e0051553          	fclass.s	a0,fa0
800000c0:	00400393          	li	t2,4
800000c4:	0c751a63          	bne	a0,t2,80000198 <fail>

800000c8 <test_5>:
800000c8:	00500193          	li	gp,5
800000cc:	80000537          	lui	a0,0x80000
800000d0:	f0050553          	fmv.w.x	fa0,a0
800000d4:	e0051553          	fclass.s	a0,fa0
800000d8:	00800393          	li	t2,8
800000dc:	0a751e63          	bne	a0,t2,80000198 <fail>

800000e0 <test_6>:
800000e0:	00600193          	li	gp,6
800000e4:	00000513          	li	a0,0
800000e8:	f0050553          	fmv.w.x	fa0,a0
800000ec:	e0051553          	fclass.s	a0,fa0
800000f0:	01000393          	li	t2,16
800000f4:	0a751263          	bne	a0,t2,80000198 <fail>

800000f8 <test_7>:
800000f8:	00700193          	li	gp,7
800000fc:	00800537          	lui	a0,0x800
80000100:	fff50513          	add	a0,a0,-1 # 7fffff <_start-0x7f800001>
80000104:	f0050553          	fmv.w.x	fa0,a0
80000108:	e0051553          	fclass.s	a0,fa0
8000010c:	02000393          	li	t2,32
80000110:	08751463          	bne	a0,t2,80000198 <fail>

80000114 <test_8>:
80000114:	00800193          	li	gp,8
80000118:	3f800537          	lui	a0,0x3f800
8000011c:	f0050553          	fmv.w.x	fa0,a0
80000120:	e0051553          	fclass.s	a0,fa0
80000124:	04000393          	li	t2,64
80000128:	06751863          	bne	a0,t2,80000198 <fail>

8000012c <test_9>:
8000012c:	00900193          	li	gp,9
80000130:	7f800537          	lui	a0,0x7f800
80000134:	f0050553          	fmv.w.x	fa0,a0
80000138:	e0051553          	fclass.s	a0,fa0
8000013c:	08000393          	li	t2,128
80000140:	04751c63          	bne	a0,t2,80000198 <fail>

80000144 <test_10>:
80000144:	00a00193          	li	gp,10
80000148:	7f800537          	lui	a0,0x7f800
8000014c:	00150513          	add	a0,a0,1 # 7f800001 <_start-0x7fffff>
80000150:	f0050553          	fmv.w.x	fa0,a0
80000154:	e0051553          	fclass.s	a0,fa0
80000158:	10000393          	li	t2,256
8000015c:	02751e63          	bne	a0,t2,80000198 <fail>

80000160 <test_11>:
80000160:	00b00193          	li	gp,11
80000164:	7fc00537          	lui	a0,0x7fc00
80000168:	f0050553          	fmv.w.x	fa0,a0
8000016c:	e0051553          	fclass.s	a0,fa0
80000170:	20000393          	li	t2,512
80000174:	02751263          	bne	a0,t2,80000198 <fail>
80000178:	00301263          	bne	zero,gp,8000017c <pass>

8000017c <pass>:
8000017c:	c0000f37          	lui	t5,0xc0000
80000180:	00100193          	li	gp,1
80000184:	003f2023          	sw	gp,0(t5) # c0000000 <_tohost>
80000188:	000f2223          	sw	zero,4(t5)
8000018c:	fff00f93          	li	t6,-1
80000190:	01ff2423          	sw	t6,8(t5)

80000194 <rvtest_pass>:
80000194:	0000006f          	j	80000194 <rvtest_pass>

80000198 <fail>:
80000198:	c0000f37          	lui	t5,0xc0000
8000019c:	00119193          	sll	gp,gp,0x1
800001a0:	0011e193          	or	gp,gp,1
800001a4:	003f2023          	sw	gp,0(t5) # c0000000 <_tohost>
800001a8:	003f2223          	sw	gp,4(t5)
800001ac:	deadcfb7          	lui	t6,0xdeadc
800001b0:	eeff8f93          	add	t6,t6,-273 # deadbeef <result+0x1eadbe6f>
800001b4:	003f2423          	sw	gp,8(t5)

800001b8 <rvtest_failed>:
800001b8:	0000006f          	j	800001b8 <rvtest_failed>
800001bc:	0000                	.insn	2, 0x
800001be:	0000                	.insn	2, 0x
800001c0:	0000                	.insn	2, 0x
800001c2:	0000                	.insn	2, 0x
