
rv32uzfh-p-move:     file format elf32-littleriscv


Disassembly of section .text.init:

80000000 <_start>:
80000000:	00000093          	li	ra,0
80000004:	00000113          	li	sp,0
80000008:	00000193          	li	gp,0
8000000c:	00000213          	li	tp,0
80000010:	00000293          	li	t0,0
80000014:	00000313          	li	t1,0
80000018:	00000393          	li	t2,0
8000001c:	00000413          	li	s0,0
80000020:	00000493          	li	s1,0
80000024:	00000513          	li	a0,0
80000028:	00000593          	li	a1,0
8000002c:	00000613          	li	a2,0
80000030:	00000693          	li	a3,0
80000034:	00000713          	li	a4,0
80000038:	00000793          	li	a5,0
8000003c:	00000813          	li	a6,0
80000040:	00000893          	li	a7,0
80000044:	00000913          	li	s2,0
80000048:	00000993          	li	s3,0
8000004c:	00000a13          	li	s4,0
80000050:	00000a93          	li	s5,0
80000054:	00000b13          	li	s6,0
80000058:	00000b93          	li	s7,0
8000005c:	00000c13          	li	s8,0
80000060:	00000c93          	li	s9,0
80000064:	00000d13          	li	s10,0
80000068:	00000d93          	li	s11,0
8000006c:	00000e13          	li	t3,0
80000070:	00000e93          	li	t4,0
80000074:	00000f13          	li	t5,0
80000078:	00000f93          	li	t6,0

8000007c <test_2>:
8000007c:	00200193          	li	gp,2
80000080:	0030d073          	csrw	fcsr,1
80000084:	00001537          	lui	a0,0x1
80000088:	23450513          	add	a0,a0,564 # 1234 <_start-0x7fffedcc>
8000008c:	003515f3          	fscsr	a1,a0
80000090:	00100393          	li	t2,1
80000094:	28759a63          	bne	a1,t2,80000328 <fail>

80000098 <test_3>:
80000098:	00300193          	li	gp,3
8000009c:	00302573          	frcsr	a0
800000a0:	03400393          	li	t2,52
800000a4:	28751263          	bne	a0,t2,80000328 <fail>

800000a8 <test_4>:
800000a8:	00400193          	li	gp,4
800000ac:	00102573          	frflags	a0
800000b0:	01400393          	li	t2,20
800000b4:	26751a63          	bne	a0,t2,80000328 <fail>

800000b8 <test_5>:
800000b8:	00500193          	li	gp,5
800000bc:	00215573          	fsrmi	a0,2
800000c0:	00100393          	li	t2,1
800000c4:	26751263          	bne	a0,t2,80000328 <fail>

800000c8 <test_6>:
800000c8:	00600193          	li	gp,6
800000cc:	00302573          	frcsr	a0
800000d0:	05400393          	li	t2,84
800000d4:	24751a63          	bne	a0,t2,80000328 <fail>

800000d8 <test_7>:
800000d8:	00700193          	li	gp,7
800000dc:	00127573          	csrrc	a0,fflags,4
800000e0:	01400393          	li	t2,20
800000e4:	24751263          	bne	a0,t2,80000328 <fail>

800000e8 <test_8>:
800000e8:	00800193          	li	gp,8
800000ec:	00302573          	frcsr	a0
800000f0:	05000393          	li	t2,80
800000f4:	22751a63          	bne	a0,t2,80000328 <fail>

800000f8 <test_10>:
800000f8:	00a00193          	li	gp,10
800000fc:	000015b7          	lui	a1,0x1
80000100:	23458593          	add	a1,a1,564 # 1234 <_start-0x7fffedcc>
80000104:	00000613          	li	a2,0
80000108:	f40580d3          	fmv.h.x	ft1,a1
8000010c:	f4060153          	fmv.h.x	ft2,a2
80000110:	24208053          	fsgnj.h	ft0,ft1,ft2
80000114:	e4000553          	fmv.x.h	a0,ft0
80000118:	000013b7          	lui	t2,0x1
8000011c:	23438393          	add	t2,t2,564 # 1234 <_start-0x7fffedcc>
80000120:	20751463          	bne	a0,t2,80000328 <fail>

80000124 <test_11>:
80000124:	00b00193          	li	gp,11
80000128:	000015b7          	lui	a1,0x1
8000012c:	23458593          	add	a1,a1,564 # 1234 <_start-0x7fffedcc>
80000130:	fff00613          	li	a2,-1
80000134:	f40580d3          	fmv.h.x	ft1,a1
80000138:	f4060153          	fmv.h.x	ft2,a2
8000013c:	24208053          	fsgnj.h	ft0,ft1,ft2
80000140:	e4000553          	fmv.x.h	a0,ft0
80000144:	ffff93b7          	lui	t2,0xffff9
80000148:	23438393          	add	t2,t2,564 # ffff9234 <result+0x3fff91b4>
8000014c:	1c751e63          	bne	a0,t2,80000328 <fail>

80000150 <test_12>:
80000150:	00c00193          	li	gp,12
80000154:	000095b7          	lui	a1,0x9
80000158:	23458593          	add	a1,a1,564 # 9234 <_start-0x7fff6dcc>
8000015c:	00000613          	li	a2,0
80000160:	f40580d3          	fmv.h.x	ft1,a1
80000164:	f4060153          	fmv.h.x	ft2,a2
80000168:	24208053          	fsgnj.h	ft0,ft1,ft2
8000016c:	e4000553          	fmv.x.h	a0,ft0
80000170:	000013b7          	lui	t2,0x1
80000174:	23438393          	add	t2,t2,564 # 1234 <_start-0x7fffedcc>
80000178:	1a751863          	bne	a0,t2,80000328 <fail>

8000017c <test_13>:
8000017c:	00d00193          	li	gp,13
80000180:	000095b7          	lui	a1,0x9
80000184:	23458593          	add	a1,a1,564 # 9234 <_start-0x7fff6dcc>
80000188:	fff00613          	li	a2,-1
8000018c:	f40580d3          	fmv.h.x	ft1,a1
80000190:	f4060153          	fmv.h.x	ft2,a2
80000194:	24208053          	fsgnj.h	ft0,ft1,ft2
80000198:	e4000553          	fmv.x.h	a0,ft0
8000019c:	ffff93b7          	lui	t2,0xffff9
800001a0:	23438393          	add	t2,t2,564 # ffff9234 <result+0x3fff91b4>
800001a4:	18751263          	bne	a0,t2,80000328 <fail>

800001a8 <test_20>:
800001a8:	01400193          	li	gp,20
800001ac:	000015b7          	lui	a1,0x1
800001b0:	23458593          	add	a1,a1,564 # 1234 <_start-0x7fffedcc>
800001b4:	00000613          	li	a2,0
800001b8:	f40580d3          	fmv.h.x	ft1,a1
800001bc:	f4060153          	fmv.h.x	ft2,a2
800001c0:	24209053          	fsgnjn.h	ft0,ft1,ft2
800001c4:	e4000553          	fmv.x.h	a0,ft0
800001c8:	ffff93b7          	lui	t2,0xffff9
800001cc:	23438393          	add	t2,t2,564 # ffff9234 <result+0x3fff91b4>
800001d0:	14751c63          	bne	a0,t2,80000328 <fail>

800001d4 <test_21>:
800001d4:	01500193          	li	gp,21
800001d8:	000015b7          	lui	a1,0x1
800001dc:	23458593          	add	a1,a1,564 # 1234 <_start-0x7fffedcc>
800001e0:	fff00613          	li	a2,-1
800001e4:	f40580d3          	fmv.h.x	ft1,a1
800001e8:	f4060153          	fmv.h.x	ft2,a2
800001ec:	24209053          	fsgnjn.h	ft0,ft1,ft2
800001f0:	e4000553          	fmv.x.h	a0,ft0
800001f4:	000013b7          	lui	t2,0x1
800001f8:	23438393          	add	t2,t2,564 # 1234 <_start-0x7fffedcc>
800001fc:	12751663          	bne	a0,t2,80000328 <fail>

80000200 <test_22>:
80000200:	01600193          	li	gp,22
80000204:	000095b7          	lui	a1,0x9
80000208:	23458593          	add	a1,a1,564 # 9234 <_start-0x7fff6dcc>
8000020c:	00000613          	li	a2,0
80000210:	f40580d3          	fmv.h.x	ft1,a1
80000214:	f4060153          	fmv.h.x	ft2,a2
80000218:	24209053          	fsgnjn.h	ft0,ft1,ft2
8000021c:	e4000553          	fmv.x.h	a0,ft0
80000220:	ffff93b7          	lui	t2,0xffff9
80000224:	23438393          	add	t2,t2,564 # ffff9234 <result+0x3fff91b4>
80000228:	10751063          	bne	a0,t2,80000328 <fail>

8000022c <test_23>:
8000022c:	01700193          	li	gp,23
80000230:	000095b7          	lui	a1,0x9
80000234:	23458593          	add	a1,a1,564 # 9234 <_start-0x7fff6dcc>
80000238:	fff00613          	li	a2,-1
8000023c:	f40580d3          	fmv.h.x	ft1,a1
80000240:	f4060153          	fmv.h.x	ft2,a2
80000244:	24209053          	fsgnjn.h	ft0,ft1,ft2
80000248:	e4000553          	fmv.x.h	a0,ft0
8000024c:	000013b7          	lui	t2,0x1
80000250:	23438393          	add	t2,t2,564 # 1234 <_start-0x7fffedcc>
80000254:	0c751a63          	bne	a0,t2,80000328 <fail>

80000258 <test_30>:
80000258:	01e00193          	li	gp,30
8000025c:	000015b7          	lui	a1,0x1
80000260:	23458593          	add	a1,a1,564 # 1234 <_start-0x7fffedcc>
80000264:	00000613          	li	a2,0
80000268:	f40580d3          	fmv.h.x	ft1,a1
8000026c:	f4060153          	fmv.h.x	ft2,a2
80000270:	2420a053          	fsgnjx.h	ft0,ft1,ft2
80000274:	e4000553          	fmv.x.h	a0,ft0
80000278:	000013b7          	lui	t2,0x1
8000027c:	23438393          	add	t2,t2,564 # 1234 <_start-0x7fffedcc>
80000280:	0a751463          	bne	a0,t2,80000328 <fail>

80000284 <test_31>:
80000284:	01f00193          	li	gp,31
80000288:	000015b7          	lui	a1,0x1
8000028c:	23458593          	add	a1,a1,564 # 1234 <_start-0x7fffedcc>
80000290:	fff00613          	li	a2,-1
80000294:	f40580d3          	fmv.h.x	ft1,a1
80000298:	f4060153          	fmv.h.x	ft2,a2
8000029c:	2420a053          	fsgnjx.h	ft0,ft1,ft2
800002a0:	e4000553          	fmv.x.h	a0,ft0
800002a4:	ffff93b7          	lui	t2,0xffff9
800002a8:	23438393          	add	t2,t2,564 # ffff9234 <result+0x3fff91b4>
800002ac:	06751e63          	bne	a0,t2,80000328 <fail>

800002b0 <test_32>:
800002b0:	02000193          	li	gp,32
800002b4:	000095b7          	lui	a1,0x9
800002b8:	23458593          	add	a1,a1,564 # 9234 <_start-0x7fff6dcc>
800002bc:	00000613          	li	a2,0
800002c0:	f40580d3          	fmv.h.x	ft1,a1
800002c4:	f4060153          	fmv.h.x	ft2,a2
800002c8:	2420a053          	fsgnjx.h	ft0,ft1,ft2
800002cc:	e4000553          	fmv.x.h	a0,ft0
800002d0:	ffff93b7          	lui	t2,0xffff9
800002d4:	23438393          	add	t2,t2,564 # ffff9234 <result+0x3fff91b4>
800002d8:	04751863          	bne	a0,t2,80000328 <fail>

800002dc <test_33>:
800002dc:	02100193          	li	gp,33
800002e0:	000095b7          	lui	a1,0x9
800002e4:	23458593          	add	a1,a1,564 # 9234 <_start-0x7fff6dcc>
800002e8:	fff00613          	li	a2,-1
800002ec:	f40580d3          	fmv.h.x	ft1,a1
800002f0:	f4060153          	fmv.h.x	ft2,a2
800002f4:	2420a053          	fsgnjx.h	ft0,ft1,ft2
800002f8:	e4000553          	fmv.x.h	a0,ft0
800002fc:	000013b7          	lui	t2,0x1
80000300:	23438393          	add	t2,t2,564 # 1234 <_start-0x7fffedcc>
80000304:	02751263          	bne	a0,t2,80000328 <fail>
80000308:	00301263          	bne	zero,gp,8000030c <pass>

8000030c <pass>:
8000030c:	c0000f37          	lui	t5,0xc0000
80000310:	00100193          	li	gp,1
80000314:	003f2023          	sw	gp,0(t5) # c0000000 <_tohost>
80000318:	000f2223          	sw	zero,4(t5)
8000031c:	fff00f93          	li	t6,-1
80000320:	01ff2423          	sw	t6,8(t5)

80000324 <rvtest_pass>:
80000324:	0000006f          	j	80000324 <rvtest_pass>

80000328 <fail>:
80000328:	c0000f37          	lui	t5,0xc0000
8000032c:	00119193          	sll	gp,gp,0x1
80000330:	0011e193          	or	gp,gp,1
80000334:	003f2023          	sw	gp,0(t5) # c0000000 <_tohost>
80000338:	003f2223          	sw	gp,4(t5)
8000033c:	deadcfb7          	lui	t6,0xdeadc
80000340:	eeff8f93          	add	t6,t6,-273 # deadbeef <result+0x1eadbe6f>
80000344:	003f2423          	sw	gp,8(t5)

80000348 <rvtest_failed>:
80000348:	0000006f          	j	80000348 <rvtest_failed>
8000034c:	0000                	.insn	2, 0x
8000034e:	0000                	.insn	2, 0x
80000350:	0000                	.insn	2, 0x
80000352:	0000                	.insn	2, 0x
80000354:	0000                	.insn	2, 0x
80000356:	0000                	.insn	2, 0x
80000358:	0000                	.insn	2, 0x
8000035a:	0000                	.insn	2, 0x
8000035c:	0000                	.insn	2, 0x
8000035e:	0000                	.insn	2, 0x
80000360:	0000                	.insn	2, 0x
80000362:	0000                	.insn	2, 0x
80000364:	0000                	.insn	2, 0x
80000366:	0000                	.insn	2, 0x
80000368:	0000                	.insn	2, 0x
8000036a:	0000                	.insn	2, 0x
8000036c:	0000                	.insn	2, 0x
8000036e:	0000                	.insn	2, 0x
80000370:	0000                	.insn	2, 0x
80000372:	0000                	.insn	2, 0x
80000374:	0000                	.insn	2, 0x
80000376:	0000                	.insn	2, 0x
80000378:	0000                	.insn	2, 0x
8000037a:	0000                	.insn	2, 0x
8000037c:	0000                	.insn	2, 0x
8000037e:	0000                	.insn	2, 0x
80000380:	0000                	.insn	2, 0x
80000382:	0000                	.insn	2, 0x
