
rv32ud-p-fdiv:     file format elf32-littleriscv


Disassembly of section .text.init:

80000000 <_start>:
80000000:	00000093          	li	ra,0
80000004:	00000113          	li	sp,0
80000008:	00000193          	li	gp,0
8000000c:	00000213          	li	tp,0
80000010:	00000293          	li	t0,0
80000014:	00000313          	li	t1,0
80000018:	00000393          	li	t2,0
8000001c:	00000413          	li	s0,0
80000020:	00000493          	li	s1,0
80000024:	00000513          	li	a0,0
80000028:	00000593          	li	a1,0
8000002c:	00000613          	li	a2,0
80000030:	00000693          	li	a3,0
80000034:	00000713          	li	a4,0
80000038:	00000793          	li	a5,0
8000003c:	00000813          	li	a6,0
80000040:	00000893          	li	a7,0
80000044:	00000913          	li	s2,0
80000048:	00000993          	li	s3,0
8000004c:	00000a13          	li	s4,0
80000050:	00000a93          	li	s5,0
80000054:	00000b13          	li	s6,0
80000058:	00000b93          	li	s7,0
8000005c:	00000c13          	li	s8,0
80000060:	00000c93          	li	s9,0
80000064:	00000d13          	li	s10,0
80000068:	00000d93          	li	s11,0
8000006c:	00000e13          	li	t3,0
80000070:	00000e93          	li	t4,0
80000074:	00000f13          	li	t5,0
80000078:	00000f93          	li	t6,0

8000007c <test_2>:
8000007c:	00200193          	li	gp,2
80000080:	20000517          	auipc	a0,0x20000
80000084:	f8050513          	add	a0,a0,-128 # a0000000 <test_2_data>
80000088:	00053007          	fld	ft0,0(a0)
8000008c:	00853087          	fld	ft1,8(a0)
80000090:	01053107          	fld	ft2,16(a0)
80000094:	01852683          	lw	a3,24(a0)
80000098:	01c52303          	lw	t1,28(a0)
8000009c:	1a1071d3          	fdiv.d	ft3,ft0,ft1
800000a0:	00353027          	fsd	ft3,0(a0)
800000a4:	00452383          	lw	t2,4(a0)
800000a8:	00052503          	lw	a0,0(a0)
800000ac:	001015f3          	fsflags	a1,zero
800000b0:	00100613          	li	a2,1
800000b4:	20d51463          	bne	a0,a3,800002bc <fail>
800000b8:	20731263          	bne	t1,t2,800002bc <fail>
800000bc:	20c59063          	bne	a1,a2,800002bc <fail>

800000c0 <test_3>:
800000c0:	00300193          	li	gp,3
800000c4:	20000517          	auipc	a0,0x20000
800000c8:	f5c50513          	add	a0,a0,-164 # a0000020 <test_3_data>
800000cc:	00053007          	fld	ft0,0(a0)
800000d0:	00853087          	fld	ft1,8(a0)
800000d4:	01053107          	fld	ft2,16(a0)
800000d8:	01852683          	lw	a3,24(a0)
800000dc:	01c52303          	lw	t1,28(a0)
800000e0:	1a1071d3          	fdiv.d	ft3,ft0,ft1
800000e4:	00353027          	fsd	ft3,0(a0)
800000e8:	00452383          	lw	t2,4(a0)
800000ec:	00052503          	lw	a0,0(a0)
800000f0:	001015f3          	fsflags	a1,zero
800000f4:	00100613          	li	a2,1
800000f8:	1cd51263          	bne	a0,a3,800002bc <fail>
800000fc:	1c731063          	bne	t1,t2,800002bc <fail>
80000100:	1ac59e63          	bne	a1,a2,800002bc <fail>

80000104 <test_4>:
80000104:	00400193          	li	gp,4
80000108:	20000517          	auipc	a0,0x20000
8000010c:	f3850513          	add	a0,a0,-200 # a0000040 <test_4_data>
80000110:	00053007          	fld	ft0,0(a0)
80000114:	00853087          	fld	ft1,8(a0)
80000118:	01053107          	fld	ft2,16(a0)
8000011c:	01852683          	lw	a3,24(a0)
80000120:	01c52303          	lw	t1,28(a0)
80000124:	1a1071d3          	fdiv.d	ft3,ft0,ft1
80000128:	00353027          	fsd	ft3,0(a0)
8000012c:	00452383          	lw	t2,4(a0)
80000130:	00052503          	lw	a0,0(a0)
80000134:	001015f3          	fsflags	a1,zero
80000138:	00000613          	li	a2,0
8000013c:	18d51063          	bne	a0,a3,800002bc <fail>
80000140:	16731e63          	bne	t1,t2,800002bc <fail>
80000144:	16c59c63          	bne	a1,a2,800002bc <fail>

80000148 <test_5>:
80000148:	00500193          	li	gp,5
8000014c:	20000517          	auipc	a0,0x20000
80000150:	f1450513          	add	a0,a0,-236 # a0000060 <test_5_data>
80000154:	00053007          	fld	ft0,0(a0)
80000158:	00853087          	fld	ft1,8(a0)
8000015c:	01053107          	fld	ft2,16(a0)
80000160:	01852683          	lw	a3,24(a0)
80000164:	01c52303          	lw	t1,28(a0)
80000168:	5a0071d3          	fsqrt.d	ft3,ft0
8000016c:	00353027          	fsd	ft3,0(a0)
80000170:	00452383          	lw	t2,4(a0)
80000174:	00052503          	lw	a0,0(a0)
80000178:	001015f3          	fsflags	a1,zero
8000017c:	00100613          	li	a2,1
80000180:	12d51e63          	bne	a0,a3,800002bc <fail>
80000184:	12731c63          	bne	t1,t2,800002bc <fail>
80000188:	12c59a63          	bne	a1,a2,800002bc <fail>

8000018c <test_6>:
8000018c:	00600193          	li	gp,6
80000190:	20000517          	auipc	a0,0x20000
80000194:	ef050513          	add	a0,a0,-272 # a0000080 <test_6_data>
80000198:	00053007          	fld	ft0,0(a0)
8000019c:	00853087          	fld	ft1,8(a0)
800001a0:	01053107          	fld	ft2,16(a0)
800001a4:	01852683          	lw	a3,24(a0)
800001a8:	01c52303          	lw	t1,28(a0)
800001ac:	5a0071d3          	fsqrt.d	ft3,ft0
800001b0:	00353027          	fsd	ft3,0(a0)
800001b4:	00452383          	lw	t2,4(a0)
800001b8:	00052503          	lw	a0,0(a0)
800001bc:	001015f3          	fsflags	a1,zero
800001c0:	00000613          	li	a2,0
800001c4:	0ed51c63          	bne	a0,a3,800002bc <fail>
800001c8:	0e731a63          	bne	t1,t2,800002bc <fail>
800001cc:	0ec59863          	bne	a1,a2,800002bc <fail>

800001d0 <test_16>:
800001d0:	01000193          	li	gp,16
800001d4:	20000517          	auipc	a0,0x20000
800001d8:	ecc50513          	add	a0,a0,-308 # a00000a0 <test_16_data>
800001dc:	00053007          	fld	ft0,0(a0)
800001e0:	00853087          	fld	ft1,8(a0)
800001e4:	01053107          	fld	ft2,16(a0)
800001e8:	01852683          	lw	a3,24(a0)
800001ec:	01c52303          	lw	t1,28(a0)
800001f0:	5a0071d3          	fsqrt.d	ft3,ft0
800001f4:	00353027          	fsd	ft3,0(a0)
800001f8:	00452383          	lw	t2,4(a0)
800001fc:	00052503          	lw	a0,0(a0)
80000200:	001015f3          	fsflags	a1,zero
80000204:	01000613          	li	a2,16
80000208:	0ad51a63          	bne	a0,a3,800002bc <fail>
8000020c:	0a731863          	bne	t1,t2,800002bc <fail>
80000210:	0ac59663          	bne	a1,a2,800002bc <fail>

80000214 <test_7>:
80000214:	00700193          	li	gp,7
80000218:	20000517          	auipc	a0,0x20000
8000021c:	ea850513          	add	a0,a0,-344 # a00000c0 <test_7_data>
80000220:	00053007          	fld	ft0,0(a0)
80000224:	00853087          	fld	ft1,8(a0)
80000228:	01053107          	fld	ft2,16(a0)
8000022c:	01852683          	lw	a3,24(a0)
80000230:	01c52303          	lw	t1,28(a0)
80000234:	5a0071d3          	fsqrt.d	ft3,ft0
80000238:	00353027          	fsd	ft3,0(a0)
8000023c:	00452383          	lw	t2,4(a0)
80000240:	00052503          	lw	a0,0(a0)
80000244:	001015f3          	fsflags	a1,zero
80000248:	00100613          	li	a2,1
8000024c:	06d51863          	bne	a0,a3,800002bc <fail>
80000250:	06731663          	bne	t1,t2,800002bc <fail>
80000254:	06c59463          	bne	a1,a2,800002bc <fail>

80000258 <test_8>:
80000258:	00800193          	li	gp,8
8000025c:	20000517          	auipc	a0,0x20000
80000260:	e8450513          	add	a0,a0,-380 # a00000e0 <test_8_data>
80000264:	00053007          	fld	ft0,0(a0)
80000268:	00853087          	fld	ft1,8(a0)
8000026c:	01053107          	fld	ft2,16(a0)
80000270:	01852683          	lw	a3,24(a0)
80000274:	01c52303          	lw	t1,28(a0)
80000278:	5a0071d3          	fsqrt.d	ft3,ft0
8000027c:	00353027          	fsd	ft3,0(a0)
80000280:	00452383          	lw	t2,4(a0)
80000284:	00052503          	lw	a0,0(a0)
80000288:	001015f3          	fsflags	a1,zero
8000028c:	00100613          	li	a2,1
80000290:	02d51663          	bne	a0,a3,800002bc <fail>
80000294:	02731463          	bne	t1,t2,800002bc <fail>
80000298:	02c59263          	bne	a1,a2,800002bc <fail>
8000029c:	00301263          	bne	zero,gp,800002a0 <pass>

800002a0 <pass>:
800002a0:	c0000f37          	lui	t5,0xc0000
800002a4:	00100193          	li	gp,1
800002a8:	003f2023          	sw	gp,0(t5) # c0000000 <tohost>
800002ac:	000f2223          	sw	zero,4(t5)
800002b0:	fff00f93          	li	t6,-1
800002b4:	01ff2423          	sw	t6,8(t5)

800002b8 <rvtest_pass>:
800002b8:	0000006f          	j	800002b8 <rvtest_pass>

800002bc <fail>:
800002bc:	c0000f37          	lui	t5,0xc0000
800002c0:	00119193          	sll	gp,gp,0x1
800002c4:	0011e193          	or	gp,gp,1
800002c8:	003f2023          	sw	gp,0(t5) # c0000000 <tohost>
800002cc:	003f2223          	sw	gp,4(t5)
800002d0:	deadcfb7          	lui	t6,0xdeadc
800002d4:	eeff8f93          	add	t6,t6,-273 # deadbeef <result+0x1eadbe6f>
800002d8:	003f2423          	sw	gp,8(t5)

800002dc <rvtest_failed>:
800002dc:	0000006f          	j	800002dc <rvtest_failed>
800002e0:	0000                	.insn	2, 0x
800002e2:	0000                	.insn	2, 0x
800002e4:	0000                	.insn	2, 0x
800002e6:	0000                	.insn	2, 0x
800002e8:	0000                	.insn	2, 0x
800002ea:	0000                	.insn	2, 0x
800002ec:	0000                	.insn	2, 0x
800002ee:	0000                	.insn	2, 0x
800002f0:	0000                	.insn	2, 0x
800002f2:	0000                	.insn	2, 0x
800002f4:	0000                	.insn	2, 0x
800002f6:	0000                	.insn	2, 0x
800002f8:	0000                	.insn	2, 0x
800002fa:	0000                	.insn	2, 0x
800002fc:	0000                	.insn	2, 0x
800002fe:	0000                	.insn	2, 0x
80000300:	0000                	.insn	2, 0x
80000302:	0000                	.insn	2, 0x

Disassembly of section .data:

a0000000 <test_2_data>:
a0000000:	d4f1                	.insn	2, 0xd4f1
a0000002:	53c8                	.insn	2, 0x53c8
a0000004:	400921fb          	.insn	4, 0x400921fb
a0000008:	b0dd                	.insn	2, 0xb0dd
a000000a:	89f1                	.insn	2, 0x89f1
a000000c:	bf0a                	.insn	2, 0xbf0a
a000000e:	4005                	.insn	2, 0x4005
a0000010:	0000                	.insn	2, 0x
a0000012:	0000                	.insn	2, 0x
a0000014:	0000                	.insn	2, 0x
a0000016:	0000                	.insn	2, 0x
a0000018:	83ec                	.insn	2, 0x83ec
a000001a:	7ddbf6c3          	.insn	4, 0x7ddbf6c3
a000001e:	3ff2                	.insn	2, 0x3ff2

a0000020 <test_3_data>:
a0000020:	0000                	.insn	2, 0x
a0000022:	0000                	.insn	2, 0x
a0000024:	4800                	.insn	2, 0x4800
a0000026:	6666c093          	xor	ra,a3,1638
a000002a:	6666                	.insn	2, 0x6666
a000002c:	4c66                	.insn	2, 0x4c66
a000002e:	00004093          	xor	ra,zero,0
a0000032:	0000                	.insn	2, 0x
a0000034:	0000                	.insn	2, 0x
a0000036:	0000                	.insn	2, 0x
a0000038:	29a5                	.insn	2, 0x29a5
a000003a:	3e19                	.insn	2, 0x3e19
a000003c:	f8b4                	.insn	2, 0xf8b4
a000003e:	          	jal	t6,9ff1bd8c <rvtest_failed+0x1ff1bab0>

a0000040 <test_4_data>:
a0000040:	d4f1                	.insn	2, 0xd4f1
a0000042:	53c8                	.insn	2, 0x53c8
a0000044:	400921fb          	.insn	4, 0x400921fb
a0000048:	0000                	.insn	2, 0x
a000004a:	0000                	.insn	2, 0x
a000004c:	0000                	.insn	2, 0x
a000004e:	3ff0                	.insn	2, 0x3ff0
a0000050:	0000                	.insn	2, 0x
a0000052:	0000                	.insn	2, 0x
a0000054:	0000                	.insn	2, 0x
a0000056:	0000                	.insn	2, 0x
a0000058:	d4f1                	.insn	2, 0xd4f1
a000005a:	53c8                	.insn	2, 0x53c8
a000005c:	400921fb          	.insn	4, 0x400921fb

a0000060 <test_5_data>:
a0000060:	d4f1                	.insn	2, 0xd4f1
a0000062:	53c8                	.insn	2, 0x53c8
a0000064:	400921fb          	.insn	4, 0x400921fb
a0000068:	0000                	.insn	2, 0x
a000006a:	0000                	.insn	2, 0x
a000006c:	0000                	.insn	2, 0x
a000006e:	0000                	.insn	2, 0x
a0000070:	0000                	.insn	2, 0x
a0000072:	0000                	.insn	2, 0x
a0000074:	0000                	.insn	2, 0x
a0000076:	0000                	.insn	2, 0x
a0000078:	916f587b          	.insn	4, 0x916f587b
a000007c:	5bf8                	.insn	2, 0x5bf8
a000007e:	3ffc                	.insn	2, 0x3ffc

a0000080 <test_6_data>:
a0000080:	0000                	.insn	2, 0x
a0000082:	0000                	.insn	2, 0x
a0000084:	8800                	.insn	2, 0x8800
a0000086:	000040c3          	fmadd.s	ft1,ft0,ft0,ft0,rmm
a000008a:	0000                	.insn	2, 0x
a000008c:	0000                	.insn	2, 0x
a000008e:	0000                	.insn	2, 0x
a0000090:	0000                	.insn	2, 0x
a0000092:	0000                	.insn	2, 0x
a0000094:	0000                	.insn	2, 0x
a0000096:	0000                	.insn	2, 0x
a0000098:	0000                	.insn	2, 0x
a000009a:	0000                	.insn	2, 0x
a000009c:	0000                	.insn	2, 0x
a000009e:	4059                	.insn	2, 0x4059

a00000a0 <test_16_data>:
a00000a0:	0000                	.insn	2, 0x
a00000a2:	0000                	.insn	2, 0x
a00000a4:	0000                	.insn	2, 0x
a00000a6:	bff0                	.insn	2, 0xbff0
a00000a8:	0000                	.insn	2, 0x
a00000aa:	0000                	.insn	2, 0x
a00000ac:	0000                	.insn	2, 0x
a00000ae:	0000                	.insn	2, 0x
a00000b0:	0000                	.insn	2, 0x
a00000b2:	0000                	.insn	2, 0x
a00000b4:	0000                	.insn	2, 0x
a00000b6:	0000                	.insn	2, 0x
a00000b8:	0000                	.insn	2, 0x
a00000ba:	0000                	.insn	2, 0x
a00000bc:	0000                	.insn	2, 0x
a00000be:	7ff8                	.insn	2, 0x7ff8

a00000c0 <test_7_data>:
a00000c0:	0000                	.insn	2, 0x
a00000c2:	0000                	.insn	2, 0x
a00000c4:	6000                	.insn	2, 0x6000
a00000c6:	4065                	.insn	2, 0x4065
a00000c8:	0000                	.insn	2, 0x
a00000ca:	0000                	.insn	2, 0x
a00000cc:	0000                	.insn	2, 0x
a00000ce:	0000                	.insn	2, 0x
a00000d0:	0000                	.insn	2, 0x
a00000d2:	0000                	.insn	2, 0x
a00000d4:	0000                	.insn	2, 0x
a00000d6:	0000                	.insn	2, 0x
a00000d8:	74f5                	.insn	2, 0x74f5
a00000da:	ce96                	.insn	2, 0xce96
a00000dc:	2744                	.insn	2, 0x2744
a00000de:	402a                	.insn	2, 0x402a

a00000e0 <test_8_data>:
a00000e0:	a105                	.insn	2, 0xa105
a00000e2:	c70a                	.insn	2, 0xc70a
a00000e4:	94df 3e85 0000      	.insn	6, 0x3e8594df
a00000ea:	0000                	.insn	2, 0x
a00000ec:	0000                	.insn	2, 0x
a00000ee:	0000                	.insn	2, 0x
a00000f0:	0000                	.insn	2, 0x
a00000f2:	0000                	.insn	2, 0x
a00000f4:	0000                	.insn	2, 0x
a00000f6:	0000                	.insn	2, 0x
a00000f8:	7f99                	.insn	2, 0x7f99
a00000fa:	4789c0e3          	blt	s3,s8,a0000d5a <_end+0xc5a>
a00000fe:	3f3a                	.insn	2, 0x3f3a
