
rv32ud-p-ldst:     file format elf32-littleriscv


Disassembly of section .text.init:

80000000 <_start>:
80000000:	00000093          	li	ra,0
80000004:	00000113          	li	sp,0
80000008:	00000193          	li	gp,0
8000000c:	00000213          	li	tp,0
80000010:	00000293          	li	t0,0
80000014:	00000313          	li	t1,0
80000018:	00000393          	li	t2,0
8000001c:	00000413          	li	s0,0
80000020:	00000493          	li	s1,0
80000024:	00000513          	li	a0,0
80000028:	00000593          	li	a1,0
8000002c:	00000613          	li	a2,0
80000030:	00000693          	li	a3,0
80000034:	00000713          	li	a4,0
80000038:	00000793          	li	a5,0
8000003c:	00000813          	li	a6,0
80000040:	00000893          	li	a7,0
80000044:	00000913          	li	s2,0
80000048:	00000993          	li	s3,0
8000004c:	00000a13          	li	s4,0
80000050:	00000a93          	li	s5,0
80000054:	00000b13          	li	s6,0
80000058:	00000b93          	li	s7,0
8000005c:	00000c13          	li	s8,0
80000060:	00000c93          	li	s9,0
80000064:	00000d13          	li	s10,0
80000068:	00000d93          	li	s11,0
8000006c:	00000e13          	li	t3,0
80000070:	00000e93          	li	t4,0
80000074:	00000f13          	li	t5,0
80000078:	00000f93          	li	t6,0
8000007c:	20000417          	auipc	s0,0x20000
80000080:	fb440413          	add	s0,s0,-76 # a0000030 <begin_signature>

80000084 <test_2>:
80000084:	00043107          	fld	ft2,0(s0)
80000088:	00243827          	fsd	ft2,16(s0)
8000008c:	01042503          	lw	a0,16(s0)
80000090:	01442583          	lw	a1,20(s0)
80000094:	20000797          	auipc	a5,0x20000
80000098:	f6c78793          	add	a5,a5,-148 # a0000000 <test_2_data>
8000009c:	0007a383          	lw	t2,0(a5)
800000a0:	0047a783          	lw	a5,4(a5)
800000a4:	00200193          	li	gp,2
800000a8:	0c751c63          	bne	a0,t2,80000180 <fail>
800000ac:	0cf59a63          	bne	a1,a5,80000180 <fail>

800000b0 <test_3>:
800000b0:	00043107          	fld	ft2,0(s0)
800000b4:	00242827          	fsw	ft2,16(s0)
800000b8:	01042503          	lw	a0,16(s0)
800000bc:	01442583          	lw	a1,20(s0)
800000c0:	20000797          	auipc	a5,0x20000
800000c4:	f4878793          	add	a5,a5,-184 # a0000008 <test_3_data>
800000c8:	0007a383          	lw	t2,0(a5)
800000cc:	0047a783          	lw	a5,4(a5)
800000d0:	00300193          	li	gp,3
800000d4:	0a751663          	bne	a0,t2,80000180 <fail>
800000d8:	0af59463          	bne	a1,a5,80000180 <fail>

800000dc <test_4>:
800000dc:	00042107          	flw	ft2,0(s0)
800000e0:	00242827          	fsw	ft2,16(s0)
800000e4:	01042503          	lw	a0,16(s0)
800000e8:	01442583          	lw	a1,20(s0)
800000ec:	20000797          	auipc	a5,0x20000
800000f0:	f2478793          	add	a5,a5,-220 # a0000010 <test_4_data>
800000f4:	0007a383          	lw	t2,0(a5)
800000f8:	0047a783          	lw	a5,4(a5)
800000fc:	00400193          	li	gp,4
80000100:	08751063          	bne	a0,t2,80000180 <fail>
80000104:	06f59e63          	bne	a1,a5,80000180 <fail>

80000108 <test_5>:
80000108:	00843107          	fld	ft2,8(s0)
8000010c:	00243827          	fsd	ft2,16(s0)
80000110:	01042503          	lw	a0,16(s0)
80000114:	01442583          	lw	a1,20(s0)
80000118:	20000797          	auipc	a5,0x20000
8000011c:	f0078793          	add	a5,a5,-256 # a0000018 <test_5_data>
80000120:	0007a383          	lw	t2,0(a5)
80000124:	0047a783          	lw	a5,4(a5)
80000128:	00500193          	li	gp,5
8000012c:	04751a63          	bne	a0,t2,80000180 <fail>
80000130:	04f59863          	bne	a1,a5,80000180 <fail>

80000134 <test_6>:
80000134:	00842107          	flw	ft2,8(s0)
80000138:	00243827          	fsd	ft2,16(s0)
8000013c:	01042503          	lw	a0,16(s0)
80000140:	01442583          	lw	a1,20(s0)
80000144:	20000797          	auipc	a5,0x20000
80000148:	edc78793          	add	a5,a5,-292 # a0000020 <test_6_data>
8000014c:	0007a383          	lw	t2,0(a5)
80000150:	0047a783          	lw	a5,4(a5)
80000154:	00600193          	li	gp,6
80000158:	02751463          	bne	a0,t2,80000180 <fail>
8000015c:	02f59263          	bne	a1,a5,80000180 <fail>
80000160:	00301263          	bne	zero,gp,80000164 <pass>

80000164 <pass>:
80000164:	c0000f37          	lui	t5,0xc0000
80000168:	00100193          	li	gp,1
8000016c:	003f2023          	sw	gp,0(t5) # c0000000 <tohost>
80000170:	000f2223          	sw	zero,4(t5)
80000174:	fff00f93          	li	t6,-1
80000178:	01ff2423          	sw	t6,8(t5)

8000017c <rvtest_pass>:
8000017c:	0000006f          	j	8000017c <rvtest_pass>

80000180 <fail>:
80000180:	c0000f37          	lui	t5,0xc0000
80000184:	00119193          	sll	gp,gp,0x1
80000188:	0011e193          	or	gp,gp,1
8000018c:	003f2023          	sw	gp,0(t5) # c0000000 <tohost>
80000190:	003f2223          	sw	gp,4(t5)
80000194:	deadcfb7          	lui	t6,0xdeadc
80000198:	eeff8f93          	add	t6,t6,-273 # deadbeef <result+0x1eadbe6f>
8000019c:	003f2423          	sw	gp,8(t5)

800001a0 <rvtest_failed>:
800001a0:	0000006f          	j	800001a0 <rvtest_failed>
800001a4:	0000                	.insn	2, 0x
800001a6:	0000                	.insn	2, 0x
800001a8:	0000                	.insn	2, 0x
800001aa:	0000                	.insn	2, 0x
800001ac:	0000                	.insn	2, 0x
800001ae:	0000                	.insn	2, 0x
800001b0:	0000                	.insn	2, 0x
800001b2:	0000                	.insn	2, 0x
800001b4:	0000                	.insn	2, 0x
800001b6:	0000                	.insn	2, 0x
800001b8:	0000                	.insn	2, 0x
800001ba:	0000                	.insn	2, 0x
800001bc:	0000                	.insn	2, 0x
800001be:	0000                	.insn	2, 0x
800001c0:	0000                	.insn	2, 0x
800001c2:	0000                	.insn	2, 0x

Disassembly of section .data:

a0000000 <test_2_data>:
a0000000:	0000                	.insn	2, 0x
a0000002:	bf80                	.insn	2, 0xbf80
a0000004:	0000                	.insn	2, 0x
a0000006:	4000                	.insn	2, 0x4000

a0000008 <test_3_data>:
a0000008:	0000                	.insn	2, 0x
a000000a:	bf80                	.insn	2, 0xbf80
a000000c:	0000                	.insn	2, 0x
a000000e:	4000                	.insn	2, 0x4000

a0000010 <test_4_data>:
a0000010:	0000                	.insn	2, 0x
a0000012:	bf80                	.insn	2, 0xbf80
a0000014:	0000                	.insn	2, 0x
a0000016:	4000                	.insn	2, 0x4000

a0000018 <test_5_data>:
a0000018:	0000                	.insn	2, 0x
a000001a:	4040                	.insn	2, 0x4040
a000001c:	0000                	.insn	2, 0x
a000001e:	c080                	.insn	2, 0xc080

a0000020 <test_6_data>:
a0000020:	0000                	.insn	2, 0x
a0000022:	4040                	.insn	2, 0x4040
a0000024:	ffff                	.insn	2, 0xffff
a0000026:	ffff                	.insn	2, 0xffff
a0000028:	0000                	.insn	2, 0x
a000002a:	0000                	.insn	2, 0x
a000002c:	0000                	.insn	2, 0x
a000002e:	0000                	.insn	2, 0x

a0000030 <begin_signature>:
a0000030:	0000                	.insn	2, 0x
a0000032:	bf80                	.insn	2, 0xbf80
a0000034:	0000                	.insn	2, 0x
a0000036:	4000                	.insn	2, 0x4000
a0000038:	0000                	.insn	2, 0x
a000003a:	4040                	.insn	2, 0x4040
a000003c:	0000                	.insn	2, 0x
a000003e:	c080                	.insn	2, 0xc080
a0000040:	deadbeef          	jal	t4,9ffdb62a <rvtest_failed+0x1ffdb48a>
a0000044:	babe                	.insn	2, 0xbabe
a0000046:	cafe                	.insn	2, 0xcafe
a0000048:	1dea                	.insn	2, 0x1dea
a000004a:	abad                	.insn	2, 0xabad
a000004c:	d00d                	.insn	2, 0xd00d
a000004e:	Address 0xa000004e is out of bounds.

