
rv32ud-p-fclass:     file format elf32-littleriscv


Disassembly of section .text.init:

80000000 <_start>:
80000000:	00000093          	li	ra,0
80000004:	00000113          	li	sp,0
80000008:	00000193          	li	gp,0
8000000c:	00000213          	li	tp,0
80000010:	00000293          	li	t0,0
80000014:	00000313          	li	t1,0
80000018:	00000393          	li	t2,0
8000001c:	00000413          	li	s0,0
80000020:	00000493          	li	s1,0
80000024:	00000513          	li	a0,0
80000028:	00000593          	li	a1,0
8000002c:	00000613          	li	a2,0
80000030:	00000693          	li	a3,0
80000034:	00000713          	li	a4,0
80000038:	00000793          	li	a5,0
8000003c:	00000813          	li	a6,0
80000040:	00000893          	li	a7,0
80000044:	00000913          	li	s2,0
80000048:	00000993          	li	s3,0
8000004c:	00000a13          	li	s4,0
80000050:	00000a93          	li	s5,0
80000054:	00000b13          	li	s6,0
80000058:	00000b93          	li	s7,0
8000005c:	00000c13          	li	s8,0
80000060:	00000c93          	li	s9,0
80000064:	00000d13          	li	s10,0
80000068:	00000d93          	li	s11,0
8000006c:	00000e13          	li	t3,0
80000070:	00000e93          	li	t4,0
80000074:	00000f13          	li	t5,0
80000078:	00000f93          	li	t6,0

8000007c <test_2>:
8000007c:	00200193          	li	gp,2
80000080:	20000517          	auipc	a0,0x20000
80000084:	f8050513          	add	a0,a0,-128 # a0000000 <test_2_data>
80000088:	00053507          	fld	fa0,0(a0)
8000008c:	e2051553          	fclass.d	a0,fa0
80000090:	00100393          	li	t2,1
80000094:	12751063          	bne	a0,t2,800001b4 <fail>

80000098 <test_3>:
80000098:	00300193          	li	gp,3
8000009c:	20000517          	auipc	a0,0x20000
800000a0:	f6c50513          	add	a0,a0,-148 # a0000008 <test_3_data>
800000a4:	00053507          	fld	fa0,0(a0)
800000a8:	e2051553          	fclass.d	a0,fa0
800000ac:	00200393          	li	t2,2
800000b0:	10751263          	bne	a0,t2,800001b4 <fail>

800000b4 <test_4>:
800000b4:	00400193          	li	gp,4
800000b8:	20000517          	auipc	a0,0x20000
800000bc:	f5850513          	add	a0,a0,-168 # a0000010 <test_4_data>
800000c0:	00053507          	fld	fa0,0(a0)
800000c4:	e2051553          	fclass.d	a0,fa0
800000c8:	00400393          	li	t2,4
800000cc:	0e751463          	bne	a0,t2,800001b4 <fail>

800000d0 <test_5>:
800000d0:	00500193          	li	gp,5
800000d4:	20000517          	auipc	a0,0x20000
800000d8:	f4450513          	add	a0,a0,-188 # a0000018 <test_5_data>
800000dc:	00053507          	fld	fa0,0(a0)
800000e0:	e2051553          	fclass.d	a0,fa0
800000e4:	00800393          	li	t2,8
800000e8:	0c751663          	bne	a0,t2,800001b4 <fail>

800000ec <test_6>:
800000ec:	00600193          	li	gp,6
800000f0:	20000517          	auipc	a0,0x20000
800000f4:	f3050513          	add	a0,a0,-208 # a0000020 <test_6_data>
800000f8:	00053507          	fld	fa0,0(a0)
800000fc:	e2051553          	fclass.d	a0,fa0
80000100:	01000393          	li	t2,16
80000104:	0a751863          	bne	a0,t2,800001b4 <fail>

80000108 <test_7>:
80000108:	00700193          	li	gp,7
8000010c:	20000517          	auipc	a0,0x20000
80000110:	f1c50513          	add	a0,a0,-228 # a0000028 <test_7_data>
80000114:	00053507          	fld	fa0,0(a0)
80000118:	e2051553          	fclass.d	a0,fa0
8000011c:	02000393          	li	t2,32
80000120:	08751a63          	bne	a0,t2,800001b4 <fail>

80000124 <test_8>:
80000124:	00800193          	li	gp,8
80000128:	20000517          	auipc	a0,0x20000
8000012c:	f0850513          	add	a0,a0,-248 # a0000030 <test_8_data>
80000130:	00053507          	fld	fa0,0(a0)
80000134:	e2051553          	fclass.d	a0,fa0
80000138:	04000393          	li	t2,64
8000013c:	06751c63          	bne	a0,t2,800001b4 <fail>

80000140 <test_9>:
80000140:	00900193          	li	gp,9
80000144:	20000517          	auipc	a0,0x20000
80000148:	ef450513          	add	a0,a0,-268 # a0000038 <test_9_data>
8000014c:	00053507          	fld	fa0,0(a0)
80000150:	e2051553          	fclass.d	a0,fa0
80000154:	08000393          	li	t2,128
80000158:	04751e63          	bne	a0,t2,800001b4 <fail>

8000015c <test_10>:
8000015c:	00a00193          	li	gp,10
80000160:	20000517          	auipc	a0,0x20000
80000164:	ee050513          	add	a0,a0,-288 # a0000040 <test_10_data>
80000168:	00053507          	fld	fa0,0(a0)
8000016c:	e2051553          	fclass.d	a0,fa0
80000170:	10000393          	li	t2,256
80000174:	04751063          	bne	a0,t2,800001b4 <fail>

80000178 <test_11>:
80000178:	00b00193          	li	gp,11
8000017c:	20000517          	auipc	a0,0x20000
80000180:	ecc50513          	add	a0,a0,-308 # a0000048 <test_11_data>
80000184:	00053507          	fld	fa0,0(a0)
80000188:	e2051553          	fclass.d	a0,fa0
8000018c:	20000393          	li	t2,512
80000190:	02751263          	bne	a0,t2,800001b4 <fail>
80000194:	00301263          	bne	zero,gp,80000198 <pass>

80000198 <pass>:
80000198:	c0000f37          	lui	t5,0xc0000
8000019c:	00100193          	li	gp,1
800001a0:	003f2023          	sw	gp,0(t5) # c0000000 <tohost>
800001a4:	000f2223          	sw	zero,4(t5)
800001a8:	fff00f93          	li	t6,-1
800001ac:	01ff2423          	sw	t6,8(t5)

800001b0 <rvtest_pass>:
800001b0:	0000006f          	j	800001b0 <rvtest_pass>

800001b4 <fail>:
800001b4:	c0000f37          	lui	t5,0xc0000
800001b8:	00119193          	sll	gp,gp,0x1
800001bc:	0011e193          	or	gp,gp,1
800001c0:	003f2023          	sw	gp,0(t5) # c0000000 <tohost>
800001c4:	003f2223          	sw	gp,4(t5)
800001c8:	deadcfb7          	lui	t6,0xdeadc
800001cc:	eeff8f93          	add	t6,t6,-273 # deadbeef <result+0x1eadbe6f>
800001d0:	003f2423          	sw	gp,8(t5)

800001d4 <rvtest_failed>:
800001d4:	0000006f          	j	800001d4 <rvtest_failed>
800001d8:	0000                	.insn	2, 0x
800001da:	0000                	.insn	2, 0x
800001dc:	0000                	.insn	2, 0x
800001de:	0000                	.insn	2, 0x
800001e0:	0000                	.insn	2, 0x
800001e2:	0000                	.insn	2, 0x
800001e4:	0000                	.insn	2, 0x
800001e6:	0000                	.insn	2, 0x
800001e8:	0000                	.insn	2, 0x
800001ea:	0000                	.insn	2, 0x
800001ec:	0000                	.insn	2, 0x
800001ee:	0000                	.insn	2, 0x
800001f0:	0000                	.insn	2, 0x
800001f2:	0000                	.insn	2, 0x
800001f4:	0000                	.insn	2, 0x
800001f6:	0000                	.insn	2, 0x
800001f8:	0000                	.insn	2, 0x
800001fa:	0000                	.insn	2, 0x
800001fc:	0000                	.insn	2, 0x
800001fe:	0000                	.insn	2, 0x
80000200:	0000                	.insn	2, 0x
80000202:	0000                	.insn	2, 0x

Disassembly of section .data:

a0000000 <test_2_data>:
a0000000:	0000                	.insn	2, 0x
a0000002:	0000                	.insn	2, 0x
a0000004:	0000                	.insn	2, 0x
a0000006:	fff0                	.insn	2, 0xfff0

a0000008 <test_3_data>:
a0000008:	0000                	.insn	2, 0x
a000000a:	0000                	.insn	2, 0x
a000000c:	0000                	.insn	2, 0x
a000000e:	bff0                	.insn	2, 0xbff0

a0000010 <test_4_data>:
a0000010:	ffff                	.insn	2, 0xffff
a0000012:	ffff                	.insn	2, 0xffff
a0000014:	ffff                	.insn	2, 0xffff
a0000016:	          	.insn	4, 0x800f

a0000018 <test_5_data>:
a0000018:	0000                	.insn	2, 0x
a000001a:	0000                	.insn	2, 0x
a000001c:	0000                	.insn	2, 0x
a000001e:	8000                	.insn	2, 0x8000

a0000020 <test_6_data>:
a0000020:	0000                	.insn	2, 0x
a0000022:	0000                	.insn	2, 0x
a0000024:	0000                	.insn	2, 0x
a0000026:	0000                	.insn	2, 0x

a0000028 <test_7_data>:
a0000028:	ffff                	.insn	2, 0xffff
a000002a:	ffff                	.insn	2, 0xffff
a000002c:	ffff                	.insn	2, 0xffff
a000002e:	          	fence	unknown,unknown

a0000030 <test_8_data>:
a0000030:	0000                	.insn	2, 0x
a0000032:	0000                	.insn	2, 0x
a0000034:	0000                	.insn	2, 0x
a0000036:	3ff0                	.insn	2, 0x3ff0

a0000038 <test_9_data>:
a0000038:	0000                	.insn	2, 0x
a000003a:	0000                	.insn	2, 0x
a000003c:	0000                	.insn	2, 0x
a000003e:	7ff0                	.insn	2, 0x7ff0

a0000040 <test_10_data>:
a0000040:	0001                	.insn	2, 0x0001
a0000042:	0000                	.insn	2, 0x
a0000044:	0000                	.insn	2, 0x
a0000046:	7ff0                	.insn	2, 0x7ff0

a0000048 <test_11_data>:
a0000048:	0000                	.insn	2, 0x
a000004a:	0000                	.insn	2, 0x
a000004c:	0000                	.insn	2, 0x
a000004e:	7ff8                	.insn	2, 0x7ff8
