
rv32ui-p-lb:     file format elf32-littleriscv


Disassembly of section .text.init:

80000000 <_start>:
80000000:	00000093          	li	ra,0
80000004:	00000113          	li	sp,0
80000008:	00000193          	li	gp,0
8000000c:	00000213          	li	tp,0
80000010:	00000293          	li	t0,0
80000014:	00000313          	li	t1,0
80000018:	00000393          	li	t2,0
8000001c:	00000413          	li	s0,0
80000020:	00000493          	li	s1,0
80000024:	00000513          	li	a0,0
80000028:	00000593          	li	a1,0
8000002c:	00000613          	li	a2,0
80000030:	00000693          	li	a3,0
80000034:	00000713          	li	a4,0
80000038:	00000793          	li	a5,0
8000003c:	00000813          	li	a6,0
80000040:	00000893          	li	a7,0
80000044:	00000913          	li	s2,0
80000048:	00000993          	li	s3,0
8000004c:	00000a13          	li	s4,0
80000050:	00000a93          	li	s5,0
80000054:	00000b13          	li	s6,0
80000058:	00000b93          	li	s7,0
8000005c:	00000c13          	li	s8,0
80000060:	00000c93          	li	s9,0
80000064:	00000d13          	li	s10,0
80000068:	00000d93          	li	s11,0
8000006c:	00000e13          	li	t3,0
80000070:	00000e93          	li	t4,0
80000074:	00000f13          	li	t5,0
80000078:	00000f93          	li	t6,0

8000007c <test_2>:
8000007c:	00200193          	li	gp,2
80000080:	fff00793          	li	a5,-1
80000084:	20000097          	auipc	ra,0x20000
80000088:	f7c08093          	add	ra,ra,-132 # a0000000 <begin_signature>
8000008c:	00008703          	lb	a4,0(ra)
80000090:	fff00393          	li	t2,-1
80000094:	26771863          	bne	a4,t2,80000304 <fail>

80000098 <test_3>:
80000098:	00300193          	li	gp,3
8000009c:	00000793          	li	a5,0
800000a0:	20000097          	auipc	ra,0x20000
800000a4:	f6008093          	add	ra,ra,-160 # a0000000 <begin_signature>
800000a8:	00108703          	lb	a4,1(ra)
800000ac:	00000393          	li	t2,0
800000b0:	24771a63          	bne	a4,t2,80000304 <fail>

800000b4 <test_4>:
800000b4:	00400193          	li	gp,4
800000b8:	ff000793          	li	a5,-16
800000bc:	20000097          	auipc	ra,0x20000
800000c0:	f4408093          	add	ra,ra,-188 # a0000000 <begin_signature>
800000c4:	00208703          	lb	a4,2(ra)
800000c8:	ff000393          	li	t2,-16
800000cc:	22771c63          	bne	a4,t2,80000304 <fail>

800000d0 <test_5>:
800000d0:	00500193          	li	gp,5
800000d4:	00f00793          	li	a5,15
800000d8:	20000097          	auipc	ra,0x20000
800000dc:	f2808093          	add	ra,ra,-216 # a0000000 <begin_signature>
800000e0:	00308703          	lb	a4,3(ra)
800000e4:	00f00393          	li	t2,15
800000e8:	20771e63          	bne	a4,t2,80000304 <fail>

800000ec <test_6>:
800000ec:	00600193          	li	gp,6
800000f0:	fff00793          	li	a5,-1
800000f4:	20000097          	auipc	ra,0x20000
800000f8:	f0f08093          	add	ra,ra,-241 # a0000003 <tdat4>
800000fc:	ffd08703          	lb	a4,-3(ra)
80000100:	fff00393          	li	t2,-1
80000104:	20771063          	bne	a4,t2,80000304 <fail>

80000108 <test_7>:
80000108:	00700193          	li	gp,7
8000010c:	00000793          	li	a5,0
80000110:	20000097          	auipc	ra,0x20000
80000114:	ef308093          	add	ra,ra,-269 # a0000003 <tdat4>
80000118:	ffe08703          	lb	a4,-2(ra)
8000011c:	00000393          	li	t2,0
80000120:	1e771263          	bne	a4,t2,80000304 <fail>

80000124 <test_8>:
80000124:	00800193          	li	gp,8
80000128:	ff000793          	li	a5,-16
8000012c:	20000097          	auipc	ra,0x20000
80000130:	ed708093          	add	ra,ra,-297 # a0000003 <tdat4>
80000134:	fff08703          	lb	a4,-1(ra)
80000138:	ff000393          	li	t2,-16
8000013c:	1c771463          	bne	a4,t2,80000304 <fail>

80000140 <test_9>:
80000140:	00900193          	li	gp,9
80000144:	00f00793          	li	a5,15
80000148:	20000097          	auipc	ra,0x20000
8000014c:	ebb08093          	add	ra,ra,-325 # a0000003 <tdat4>
80000150:	00008703          	lb	a4,0(ra)
80000154:	00f00393          	li	t2,15
80000158:	1a771663          	bne	a4,t2,80000304 <fail>

8000015c <test_10>:
8000015c:	00a00193          	li	gp,10
80000160:	20000097          	auipc	ra,0x20000
80000164:	ea008093          	add	ra,ra,-352 # a0000000 <begin_signature>
80000168:	fe008093          	add	ra,ra,-32
8000016c:	02008283          	lb	t0,32(ra)
80000170:	fff00393          	li	t2,-1
80000174:	18729863          	bne	t0,t2,80000304 <fail>

80000178 <test_11>:
80000178:	00b00193          	li	gp,11
8000017c:	20000097          	auipc	ra,0x20000
80000180:	e8408093          	add	ra,ra,-380 # a0000000 <begin_signature>
80000184:	ffa08093          	add	ra,ra,-6
80000188:	00708283          	lb	t0,7(ra)
8000018c:	00000393          	li	t2,0
80000190:	16729a63          	bne	t0,t2,80000304 <fail>

80000194 <test_12>:
80000194:	00c00193          	li	gp,12
80000198:	00000213          	li	tp,0
8000019c:	20000097          	auipc	ra,0x20000
800001a0:	e6508093          	add	ra,ra,-411 # a0000001 <tdat2>
800001a4:	00108703          	lb	a4,1(ra)
800001a8:	00070313          	mv	t1,a4
800001ac:	ff000393          	li	t2,-16
800001b0:	14731a63          	bne	t1,t2,80000304 <fail>
800001b4:	00120213          	add	tp,tp,1 # 1 <_start-0x7fffffff>
800001b8:	00200293          	li	t0,2
800001bc:	fe5210e3          	bne	tp,t0,8000019c <test_12+0x8>

800001c0 <test_13>:
800001c0:	00d00193          	li	gp,13
800001c4:	00000213          	li	tp,0
800001c8:	20000097          	auipc	ra,0x20000
800001cc:	e3a08093          	add	ra,ra,-454 # a0000002 <tdat3>
800001d0:	00108703          	lb	a4,1(ra)
800001d4:	00000013          	nop
800001d8:	00070313          	mv	t1,a4
800001dc:	00f00393          	li	t2,15
800001e0:	12731263          	bne	t1,t2,80000304 <fail>
800001e4:	00120213          	add	tp,tp,1 # 1 <_start-0x7fffffff>
800001e8:	00200293          	li	t0,2
800001ec:	fc521ee3          	bne	tp,t0,800001c8 <test_13+0x8>

800001f0 <test_14>:
800001f0:	00e00193          	li	gp,14
800001f4:	00000213          	li	tp,0
800001f8:	20000097          	auipc	ra,0x20000
800001fc:	e0808093          	add	ra,ra,-504 # a0000000 <begin_signature>
80000200:	00108703          	lb	a4,1(ra)
80000204:	00000013          	nop
80000208:	00000013          	nop
8000020c:	00070313          	mv	t1,a4
80000210:	00000393          	li	t2,0
80000214:	0e731863          	bne	t1,t2,80000304 <fail>
80000218:	00120213          	add	tp,tp,1 # 1 <_start-0x7fffffff>
8000021c:	00200293          	li	t0,2
80000220:	fc521ce3          	bne	tp,t0,800001f8 <test_14+0x8>

80000224 <test_15>:
80000224:	00f00193          	li	gp,15
80000228:	00000213          	li	tp,0
8000022c:	20000097          	auipc	ra,0x20000
80000230:	dd508093          	add	ra,ra,-555 # a0000001 <tdat2>
80000234:	00108703          	lb	a4,1(ra)
80000238:	ff000393          	li	t2,-16
8000023c:	0c771463          	bne	a4,t2,80000304 <fail>
80000240:	00120213          	add	tp,tp,1 # 1 <_start-0x7fffffff>
80000244:	00200293          	li	t0,2
80000248:	fe5212e3          	bne	tp,t0,8000022c <test_15+0x8>

8000024c <test_16>:
8000024c:	01000193          	li	gp,16
80000250:	00000213          	li	tp,0
80000254:	20000097          	auipc	ra,0x20000
80000258:	dae08093          	add	ra,ra,-594 # a0000002 <tdat3>
8000025c:	00000013          	nop
80000260:	00108703          	lb	a4,1(ra)
80000264:	00f00393          	li	t2,15
80000268:	08771e63          	bne	a4,t2,80000304 <fail>
8000026c:	00120213          	add	tp,tp,1 # 1 <_start-0x7fffffff>
80000270:	00200293          	li	t0,2
80000274:	fe5210e3          	bne	tp,t0,80000254 <test_16+0x8>

80000278 <test_17>:
80000278:	01100193          	li	gp,17
8000027c:	00000213          	li	tp,0
80000280:	20000097          	auipc	ra,0x20000
80000284:	d8008093          	add	ra,ra,-640 # a0000000 <begin_signature>
80000288:	00000013          	nop
8000028c:	00000013          	nop
80000290:	00108703          	lb	a4,1(ra)
80000294:	00000393          	li	t2,0
80000298:	06771663          	bne	a4,t2,80000304 <fail>
8000029c:	00120213          	add	tp,tp,1 # 1 <_start-0x7fffffff>
800002a0:	00200293          	li	t0,2
800002a4:	fc521ee3          	bne	tp,t0,80000280 <test_17+0x8>

800002a8 <test_18>:
800002a8:	01200193          	li	gp,18
800002ac:	20000297          	auipc	t0,0x20000
800002b0:	d5428293          	add	t0,t0,-684 # a0000000 <begin_signature>
800002b4:	00028103          	lb	sp,0(t0)
800002b8:	00200113          	li	sp,2
800002bc:	00200393          	li	t2,2
800002c0:	04711263          	bne	sp,t2,80000304 <fail>

800002c4 <test_19>:
800002c4:	01300193          	li	gp,19
800002c8:	20000297          	auipc	t0,0x20000
800002cc:	d3828293          	add	t0,t0,-712 # a0000000 <begin_signature>
800002d0:	00028103          	lb	sp,0(t0)
800002d4:	00000013          	nop
800002d8:	00200113          	li	sp,2
800002dc:	00200393          	li	t2,2
800002e0:	02711263          	bne	sp,t2,80000304 <fail>
800002e4:	00301263          	bne	zero,gp,800002e8 <pass>

800002e8 <pass>:
800002e8:	c0000f37          	lui	t5,0xc0000
800002ec:	00100193          	li	gp,1
800002f0:	003f2023          	sw	gp,0(t5) # c0000000 <tohost>
800002f4:	000f2223          	sw	zero,4(t5)
800002f8:	fff00f93          	li	t6,-1
800002fc:	01ff2423          	sw	t6,8(t5)

80000300 <rvtest_pass>:
80000300:	0000006f          	j	80000300 <rvtest_pass>

80000304 <fail>:
80000304:	c0000f37          	lui	t5,0xc0000
80000308:	00119193          	sll	gp,gp,0x1
8000030c:	0011e193          	or	gp,gp,1
80000310:	003f2023          	sw	gp,0(t5) # c0000000 <tohost>
80000314:	003f2223          	sw	gp,4(t5)
80000318:	deadcfb7          	lui	t6,0xdeadc
8000031c:	eeff8f93          	add	t6,t6,-273 # deadbeef <result+0x1eadbe6f>
80000320:	003f2423          	sw	gp,8(t5)

80000324 <rvtest_failed>:
80000324:	0000006f          	j	80000324 <rvtest_failed>
80000328:	0000                	.insn	2, 0x
8000032a:	0000                	.insn	2, 0x
8000032c:	0000                	.insn	2, 0x
8000032e:	0000                	.insn	2, 0x
80000330:	0000                	.insn	2, 0x
80000332:	0000                	.insn	2, 0x
80000334:	0000                	.insn	2, 0x
80000336:	0000                	.insn	2, 0x
80000338:	0000                	.insn	2, 0x
8000033a:	0000                	.insn	2, 0x
8000033c:	0000                	.insn	2, 0x
8000033e:	0000                	.insn	2, 0x
80000340:	0000                	.insn	2, 0x
80000342:	0000                	.insn	2, 0x

Disassembly of section .data:

a0000000 <begin_signature>:
a0000000:	    	.insn	10, 0x0ff000ff
a0000008:	 

a0000001 <tdat2>:
a0000001:	                	.insn	2, 0xf000

a0000002 <tdat3>:
a0000002:	                	.insn	2, 0x0ff0

a0000003 <tdat4>:
a0000003:	0000000f          	fence	unknown,unknown
a0000007:	0000                	.insn	2, 0x
a0000009:	0000                	.insn	2, 0x
a000000b:	0000                	.insn	2, 0x
a000000d:	0000                	.insn	2, 0x
a000000f:	Address 0xa000000f is out of bounds.

