
rv32uzfh-p-fmin:     file format elf32-littleriscv


Disassembly of section .text.init:

80000000 <_start>:
80000000:	00000093          	li	ra,0
80000004:	00000113          	li	sp,0
80000008:	00000193          	li	gp,0
8000000c:	00000213          	li	tp,0
80000010:	00000293          	li	t0,0
80000014:	00000313          	li	t1,0
80000018:	00000393          	li	t2,0
8000001c:	00000413          	li	s0,0
80000020:	00000493          	li	s1,0
80000024:	00000513          	li	a0,0
80000028:	00000593          	li	a1,0
8000002c:	00000613          	li	a2,0
80000030:	00000693          	li	a3,0
80000034:	00000713          	li	a4,0
80000038:	00000793          	li	a5,0
8000003c:	00000813          	li	a6,0
80000040:	00000893          	li	a7,0
80000044:	00000913          	li	s2,0
80000048:	00000993          	li	s3,0
8000004c:	00000a13          	li	s4,0
80000050:	00000a93          	li	s5,0
80000054:	00000b13          	li	s6,0
80000058:	00000b93          	li	s7,0
8000005c:	00000c13          	li	s8,0
80000060:	00000c93          	li	s9,0
80000064:	00000d13          	li	s10,0
80000068:	00000d93          	li	s11,0
8000006c:	00000e13          	li	t3,0
80000070:	00000e93          	li	t4,0
80000074:	00000f13          	li	t5,0
80000078:	00000f93          	li	t6,0

8000007c <test_2>:
8000007c:	00200193          	li	gp,2
80000080:	20000517          	auipc	a0,0x20000
80000084:	f8050513          	add	a0,a0,-128 # a0000000 <test_2_data>
80000088:	00051007          	flh	ft0,0(a0)
8000008c:	00251087          	flh	ft1,2(a0)
80000090:	00451107          	flh	ft2,4(a0)
80000094:	00651683          	lh	a3,6(a0)
80000098:	2c1001d3          	fmin.h	ft3,ft0,ft1
8000009c:	e4018553          	fmv.x.h	a0,ft3
800000a0:	001015f3          	fsflags	a1,zero
800000a4:	00000613          	li	a2,0
800000a8:	38d51e63          	bne	a0,a3,80000444 <fail>
800000ac:	38c59c63          	bne	a1,a2,80000444 <fail>

800000b0 <test_3>:
800000b0:	00300193          	li	gp,3
800000b4:	20000517          	auipc	a0,0x20000
800000b8:	f5450513          	add	a0,a0,-172 # a0000008 <test_3_data>
800000bc:	00051007          	flh	ft0,0(a0)
800000c0:	00251087          	flh	ft1,2(a0)
800000c4:	00451107          	flh	ft2,4(a0)
800000c8:	00651683          	lh	a3,6(a0)
800000cc:	2c1001d3          	fmin.h	ft3,ft0,ft1
800000d0:	e4018553          	fmv.x.h	a0,ft3
800000d4:	001015f3          	fsflags	a1,zero
800000d8:	00000613          	li	a2,0
800000dc:	36d51463          	bne	a0,a3,80000444 <fail>
800000e0:	36c59263          	bne	a1,a2,80000444 <fail>

800000e4 <test_4>:
800000e4:	00400193          	li	gp,4
800000e8:	20000517          	auipc	a0,0x20000
800000ec:	f2850513          	add	a0,a0,-216 # a0000010 <test_4_data>
800000f0:	00051007          	flh	ft0,0(a0)
800000f4:	00251087          	flh	ft1,2(a0)
800000f8:	00451107          	flh	ft2,4(a0)
800000fc:	00651683          	lh	a3,6(a0)
80000100:	2c1001d3          	fmin.h	ft3,ft0,ft1
80000104:	e4018553          	fmv.x.h	a0,ft3
80000108:	001015f3          	fsflags	a1,zero
8000010c:	00000613          	li	a2,0
80000110:	32d51a63          	bne	a0,a3,80000444 <fail>
80000114:	32c59863          	bne	a1,a2,80000444 <fail>

80000118 <test_5>:
80000118:	00500193          	li	gp,5
8000011c:	20000517          	auipc	a0,0x20000
80000120:	efc50513          	add	a0,a0,-260 # a0000018 <test_5_data>
80000124:	00051007          	flh	ft0,0(a0)
80000128:	00251087          	flh	ft1,2(a0)
8000012c:	00451107          	flh	ft2,4(a0)
80000130:	00651683          	lh	a3,6(a0)
80000134:	2c1001d3          	fmin.h	ft3,ft0,ft1
80000138:	e4018553          	fmv.x.h	a0,ft3
8000013c:	001015f3          	fsflags	a1,zero
80000140:	00000613          	li	a2,0
80000144:	30d51063          	bne	a0,a3,80000444 <fail>
80000148:	2ec59e63          	bne	a1,a2,80000444 <fail>

8000014c <test_6>:
8000014c:	00600193          	li	gp,6
80000150:	20000517          	auipc	a0,0x20000
80000154:	ed050513          	add	a0,a0,-304 # a0000020 <test_6_data>
80000158:	00051007          	flh	ft0,0(a0)
8000015c:	00251087          	flh	ft1,2(a0)
80000160:	00451107          	flh	ft2,4(a0)
80000164:	00651683          	lh	a3,6(a0)
80000168:	2c1001d3          	fmin.h	ft3,ft0,ft1
8000016c:	e4018553          	fmv.x.h	a0,ft3
80000170:	001015f3          	fsflags	a1,zero
80000174:	00000613          	li	a2,0
80000178:	2cd51663          	bne	a0,a3,80000444 <fail>
8000017c:	2cc59463          	bne	a1,a2,80000444 <fail>

80000180 <test_7>:
80000180:	00700193          	li	gp,7
80000184:	20000517          	auipc	a0,0x20000
80000188:	ea450513          	add	a0,a0,-348 # a0000028 <test_7_data>
8000018c:	00051007          	flh	ft0,0(a0)
80000190:	00251087          	flh	ft1,2(a0)
80000194:	00451107          	flh	ft2,4(a0)
80000198:	00651683          	lh	a3,6(a0)
8000019c:	2c1001d3          	fmin.h	ft3,ft0,ft1
800001a0:	e4018553          	fmv.x.h	a0,ft3
800001a4:	001015f3          	fsflags	a1,zero
800001a8:	00000613          	li	a2,0
800001ac:	28d51c63          	bne	a0,a3,80000444 <fail>
800001b0:	28c59a63          	bne	a1,a2,80000444 <fail>

800001b4 <test_12>:
800001b4:	00c00193          	li	gp,12
800001b8:	20000517          	auipc	a0,0x20000
800001bc:	e7850513          	add	a0,a0,-392 # a0000030 <test_12_data>
800001c0:	00051007          	flh	ft0,0(a0)
800001c4:	00251087          	flh	ft1,2(a0)
800001c8:	00451107          	flh	ft2,4(a0)
800001cc:	00651683          	lh	a3,6(a0)
800001d0:	2c1011d3          	fmax.h	ft3,ft0,ft1
800001d4:	e4018553          	fmv.x.h	a0,ft3
800001d8:	001015f3          	fsflags	a1,zero
800001dc:	00000613          	li	a2,0
800001e0:	26d51263          	bne	a0,a3,80000444 <fail>
800001e4:	26c59063          	bne	a1,a2,80000444 <fail>

800001e8 <test_13>:
800001e8:	00d00193          	li	gp,13
800001ec:	20000517          	auipc	a0,0x20000
800001f0:	e4c50513          	add	a0,a0,-436 # a0000038 <test_13_data>
800001f4:	00051007          	flh	ft0,0(a0)
800001f8:	00251087          	flh	ft1,2(a0)
800001fc:	00451107          	flh	ft2,4(a0)
80000200:	00651683          	lh	a3,6(a0)
80000204:	2c1011d3          	fmax.h	ft3,ft0,ft1
80000208:	e4018553          	fmv.x.h	a0,ft3
8000020c:	001015f3          	fsflags	a1,zero
80000210:	00000613          	li	a2,0
80000214:	22d51863          	bne	a0,a3,80000444 <fail>
80000218:	22c59663          	bne	a1,a2,80000444 <fail>

8000021c <test_14>:
8000021c:	00e00193          	li	gp,14
80000220:	20000517          	auipc	a0,0x20000
80000224:	e2050513          	add	a0,a0,-480 # a0000040 <test_14_data>
80000228:	00051007          	flh	ft0,0(a0)
8000022c:	00251087          	flh	ft1,2(a0)
80000230:	00451107          	flh	ft2,4(a0)
80000234:	00651683          	lh	a3,6(a0)
80000238:	2c1011d3          	fmax.h	ft3,ft0,ft1
8000023c:	e4018553          	fmv.x.h	a0,ft3
80000240:	001015f3          	fsflags	a1,zero
80000244:	00000613          	li	a2,0
80000248:	1ed51e63          	bne	a0,a3,80000444 <fail>
8000024c:	1ec59c63          	bne	a1,a2,80000444 <fail>

80000250 <test_15>:
80000250:	00f00193          	li	gp,15
80000254:	20000517          	auipc	a0,0x20000
80000258:	df450513          	add	a0,a0,-524 # a0000048 <test_15_data>
8000025c:	00051007          	flh	ft0,0(a0)
80000260:	00251087          	flh	ft1,2(a0)
80000264:	00451107          	flh	ft2,4(a0)
80000268:	00651683          	lh	a3,6(a0)
8000026c:	2c1011d3          	fmax.h	ft3,ft0,ft1
80000270:	e4018553          	fmv.x.h	a0,ft3
80000274:	001015f3          	fsflags	a1,zero
80000278:	00000613          	li	a2,0
8000027c:	1cd51463          	bne	a0,a3,80000444 <fail>
80000280:	1cc59263          	bne	a1,a2,80000444 <fail>

80000284 <test_16>:
80000284:	01000193          	li	gp,16
80000288:	20000517          	auipc	a0,0x20000
8000028c:	dc850513          	add	a0,a0,-568 # a0000050 <test_16_data>
80000290:	00051007          	flh	ft0,0(a0)
80000294:	00251087          	flh	ft1,2(a0)
80000298:	00451107          	flh	ft2,4(a0)
8000029c:	00651683          	lh	a3,6(a0)
800002a0:	2c1011d3          	fmax.h	ft3,ft0,ft1
800002a4:	e4018553          	fmv.x.h	a0,ft3
800002a8:	001015f3          	fsflags	a1,zero
800002ac:	00000613          	li	a2,0
800002b0:	18d51a63          	bne	a0,a3,80000444 <fail>
800002b4:	18c59863          	bne	a1,a2,80000444 <fail>

800002b8 <test_17>:
800002b8:	01100193          	li	gp,17
800002bc:	20000517          	auipc	a0,0x20000
800002c0:	d9c50513          	add	a0,a0,-612 # a0000058 <test_17_data>
800002c4:	00051007          	flh	ft0,0(a0)
800002c8:	00251087          	flh	ft1,2(a0)
800002cc:	00451107          	flh	ft2,4(a0)
800002d0:	00651683          	lh	a3,6(a0)
800002d4:	2c1011d3          	fmax.h	ft3,ft0,ft1
800002d8:	e4018553          	fmv.x.h	a0,ft3
800002dc:	001015f3          	fsflags	a1,zero
800002e0:	00000613          	li	a2,0
800002e4:	16d51063          	bne	a0,a3,80000444 <fail>
800002e8:	14c59e63          	bne	a1,a2,80000444 <fail>

800002ec <test_20>:
800002ec:	01400193          	li	gp,20
800002f0:	20000517          	auipc	a0,0x20000
800002f4:	d7050513          	add	a0,a0,-656 # a0000060 <test_20_data>
800002f8:	00051007          	flh	ft0,0(a0)
800002fc:	00251087          	flh	ft1,2(a0)
80000300:	00451107          	flh	ft2,4(a0)
80000304:	00651683          	lh	a3,6(a0)
80000308:	2c1011d3          	fmax.h	ft3,ft0,ft1
8000030c:	e4018553          	fmv.x.h	a0,ft3
80000310:	001015f3          	fsflags	a1,zero
80000314:	01000613          	li	a2,16
80000318:	12d51663          	bne	a0,a3,80000444 <fail>
8000031c:	12c59463          	bne	a1,a2,80000444 <fail>

80000320 <test_21>:
80000320:	01500193          	li	gp,21
80000324:	20000517          	auipc	a0,0x20000
80000328:	d4450513          	add	a0,a0,-700 # a0000068 <test_21_data>
8000032c:	00051007          	flh	ft0,0(a0)
80000330:	00251087          	flh	ft1,2(a0)
80000334:	00451107          	flh	ft2,4(a0)
80000338:	00651683          	lh	a3,6(a0)
8000033c:	2c1011d3          	fmax.h	ft3,ft0,ft1
80000340:	e4018553          	fmv.x.h	a0,ft3
80000344:	001015f3          	fsflags	a1,zero
80000348:	00000613          	li	a2,0
8000034c:	0ed51c63          	bne	a0,a3,80000444 <fail>
80000350:	0ec59a63          	bne	a1,a2,80000444 <fail>

80000354 <test_30>:
80000354:	01e00193          	li	gp,30
80000358:	20000517          	auipc	a0,0x20000
8000035c:	d1850513          	add	a0,a0,-744 # a0000070 <test_30_data>
80000360:	00051007          	flh	ft0,0(a0)
80000364:	00251087          	flh	ft1,2(a0)
80000368:	00451107          	flh	ft2,4(a0)
8000036c:	00651683          	lh	a3,6(a0)
80000370:	2c1001d3          	fmin.h	ft3,ft0,ft1
80000374:	e4018553          	fmv.x.h	a0,ft3
80000378:	001015f3          	fsflags	a1,zero
8000037c:	00000613          	li	a2,0
80000380:	0cd51263          	bne	a0,a3,80000444 <fail>
80000384:	0cc59063          	bne	a1,a2,80000444 <fail>

80000388 <test_31>:
80000388:	01f00193          	li	gp,31
8000038c:	20000517          	auipc	a0,0x20000
80000390:	cec50513          	add	a0,a0,-788 # a0000078 <test_31_data>
80000394:	00051007          	flh	ft0,0(a0)
80000398:	00251087          	flh	ft1,2(a0)
8000039c:	00451107          	flh	ft2,4(a0)
800003a0:	00651683          	lh	a3,6(a0)
800003a4:	2c1001d3          	fmin.h	ft3,ft0,ft1
800003a8:	e4018553          	fmv.x.h	a0,ft3
800003ac:	001015f3          	fsflags	a1,zero
800003b0:	00000613          	li	a2,0
800003b4:	08d51863          	bne	a0,a3,80000444 <fail>
800003b8:	08c59663          	bne	a1,a2,80000444 <fail>

800003bc <test_32>:
800003bc:	02000193          	li	gp,32
800003c0:	20000517          	auipc	a0,0x20000
800003c4:	cc050513          	add	a0,a0,-832 # a0000080 <test_32_data>
800003c8:	00051007          	flh	ft0,0(a0)
800003cc:	00251087          	flh	ft1,2(a0)
800003d0:	00451107          	flh	ft2,4(a0)
800003d4:	00651683          	lh	a3,6(a0)
800003d8:	2c1011d3          	fmax.h	ft3,ft0,ft1
800003dc:	e4018553          	fmv.x.h	a0,ft3
800003e0:	001015f3          	fsflags	a1,zero
800003e4:	00000613          	li	a2,0
800003e8:	04d51e63          	bne	a0,a3,80000444 <fail>
800003ec:	04c59c63          	bne	a1,a2,80000444 <fail>

800003f0 <test_33>:
800003f0:	02100193          	li	gp,33
800003f4:	20000517          	auipc	a0,0x20000
800003f8:	c9450513          	add	a0,a0,-876 # a0000088 <test_33_data>
800003fc:	00051007          	flh	ft0,0(a0)
80000400:	00251087          	flh	ft1,2(a0)
80000404:	00451107          	flh	ft2,4(a0)
80000408:	00651683          	lh	a3,6(a0)
8000040c:	2c1011d3          	fmax.h	ft3,ft0,ft1
80000410:	e4018553          	fmv.x.h	a0,ft3
80000414:	001015f3          	fsflags	a1,zero
80000418:	00000613          	li	a2,0
8000041c:	02d51463          	bne	a0,a3,80000444 <fail>
80000420:	02c59263          	bne	a1,a2,80000444 <fail>
80000424:	00301263          	bne	zero,gp,80000428 <pass>

80000428 <pass>:
80000428:	c0000f37          	lui	t5,0xc0000
8000042c:	00100193          	li	gp,1
80000430:	003f2023          	sw	gp,0(t5) # c0000000 <tohost>
80000434:	000f2223          	sw	zero,4(t5)
80000438:	fff00f93          	li	t6,-1
8000043c:	01ff2423          	sw	t6,8(t5)

80000440 <rvtest_pass>:
80000440:	0000006f          	j	80000440 <rvtest_pass>

80000444 <fail>:
80000444:	c0000f37          	lui	t5,0xc0000
80000448:	00119193          	sll	gp,gp,0x1
8000044c:	0011e193          	or	gp,gp,1
80000450:	003f2023          	sw	gp,0(t5) # c0000000 <tohost>
80000454:	003f2223          	sw	gp,4(t5)
80000458:	deadcfb7          	lui	t6,0xdeadc
8000045c:	eeff8f93          	add	t6,t6,-273 # deadbeef <result+0x1eadbe6f>
80000460:	003f2423          	sw	gp,8(t5)

80000464 <rvtest_failed>:
80000464:	0000006f          	j	80000464 <rvtest_failed>
80000468:	0000                	.insn	2, 0x
8000046a:	0000                	.insn	2, 0x
8000046c:	0000                	.insn	2, 0x
8000046e:	0000                	.insn	2, 0x
80000470:	0000                	.insn	2, 0x
80000472:	0000                	.insn	2, 0x
80000474:	0000                	.insn	2, 0x
80000476:	0000                	.insn	2, 0x
80000478:	0000                	.insn	2, 0x
8000047a:	0000                	.insn	2, 0x
8000047c:	0000                	.insn	2, 0x
8000047e:	0000                	.insn	2, 0x
80000480:	0000                	.insn	2, 0x
80000482:	0000                	.insn	2, 0x

Disassembly of section .data:

a0000000 <test_2_data>:
a0000000:	4100                	.insn	2, 0x4100
a0000002:	3c00                	.insn	2, 0x3c00
a0000004:	0000                	.insn	2, 0x
a0000006:	3c00                	.insn	2, 0x3c00

a0000008 <test_3_data>:
a0000008:	3c66e4d3          	.insn	4, 0x3c66e4d3
a000000c:	0000                	.insn	2, 0x
a000000e:	          	.insn	4, 0x3c66e4d3

a0000010 <test_4_data>:
a0000010:	3c66                	.insn	2, 0x3c66
a0000012:	0000e4d3          	fadd.s	fs1,ft1,ft0,unknown
a0000016:	          	.insn	4, 0x7fffe4d3

a0000018 <test_5_data>:
a0000018:	7fff                	.insn	2, 0x7fff
a000001a:	0000e4d3          	fadd.s	fs1,ft1,ft0,unknown
a000001e:	          	.insn	4, 0x4248e4d3

a0000020 <test_6_data>:
a0000020:	4248                	.insn	2, 0x4248
a0000022:	0000                	.insn	2, 0x
a0000024:	0000                	.insn	2, 0x
a0000026:	0000                	.insn	2, 0x

a0000028 <test_7_data>:
a0000028:	bc00                	.insn	2, 0xbc00
a000002a:	c000                	.insn	2, 0xc000
a000002c:	0000                	.insn	2, 0x
a000002e:	c000                	.insn	2, 0xc000

a0000030 <test_12_data>:
a0000030:	4100                	.insn	2, 0x4100
a0000032:	3c00                	.insn	2, 0x3c00
a0000034:	0000                	.insn	2, 0x
a0000036:	4100                	.insn	2, 0x4100

a0000038 <test_13_data>:
a0000038:	3c66e4d3          	.insn	4, 0x3c66e4d3
a000003c:	0000                	.insn	2, 0x
a000003e:	3c66                	.insn	2, 0x3c66

a0000040 <test_14_data>:
a0000040:	3c66                	.insn	2, 0x3c66
a0000042:	0000e4d3          	fadd.s	fs1,ft1,ft0,unknown
a0000046:	3c66                	.insn	2, 0x3c66

a0000048 <test_15_data>:
a0000048:	7fff                	.insn	2, 0x7fff
a000004a:	0000e4d3          	fadd.s	fs1,ft1,ft0,unknown
a000004e:	          	.insn	4, 0x4248e4d3

a0000050 <test_16_data>:
a0000050:	4248                	.insn	2, 0x4248
a0000052:	0000                	.insn	2, 0x
a0000054:	0000                	.insn	2, 0x
a0000056:	4248                	.insn	2, 0x4248

a0000058 <test_17_data>:
a0000058:	bc00                	.insn	2, 0xbc00
a000005a:	c000                	.insn	2, 0xc000
a000005c:	0000                	.insn	2, 0x
a000005e:	bc00                	.insn	2, 0xbc00

a0000060 <test_20_data>:
a0000060:	7c01                	.insn	2, 0x7c01
a0000062:	3c00                	.insn	2, 0x3c00
a0000064:	0000                	.insn	2, 0x
a0000066:	3c00                	.insn	2, 0x3c00

a0000068 <test_21_data>:
a0000068:	7fff                	.insn	2, 0x7fff
a000006a:	7fff                	.insn	2, 0x7fff
a000006c:	0000                	.insn	2, 0x
a000006e:	7e00                	.insn	2, 0x7e00

a0000070 <test_30_data>:
a0000070:	8000                	.insn	2, 0x8000
a0000072:	0000                	.insn	2, 0x
a0000074:	0000                	.insn	2, 0x
a0000076:	8000                	.insn	2, 0x8000

a0000078 <test_31_data>:
a0000078:	0000                	.insn	2, 0x
a000007a:	8000                	.insn	2, 0x8000
a000007c:	0000                	.insn	2, 0x
a000007e:	8000                	.insn	2, 0x8000

a0000080 <test_32_data>:
a0000080:	8000                	.insn	2, 0x8000
a0000082:	0000                	.insn	2, 0x
a0000084:	0000                	.insn	2, 0x
a0000086:	0000                	.insn	2, 0x

a0000088 <test_33_data>:
a0000088:	0000                	.insn	2, 0x
a000008a:	8000                	.insn	2, 0x8000
a000008c:	0000                	.insn	2, 0x
a000008e:	0000                	.insn	2, 0x
